	.file	"misc.c"
	.text
.Ltext0:
	.cfi_sections	.debug_frame
#APP
	.section .text.asm.src/stacks.c.102
	  .global trampoline_checkirqs
trampoline_checkirqs:
  rep ; nop
  lretw
	.section .text.asm.src/stacks.c.132
	  .global trampoline_waitirq
trampoline_waitirq:
  sti
  hlt
  lretw
	.section .text.asm.src/smp.c.66
	  .global smp_ap_boot_code
smp_ap_boot_code:
  movw $0xf000, %ax
  movw %ax, %ds
  movl $smp_mtrr, %esi
  movl smp_mtrr_count, %ebx
1:testl %ebx, %ebx
  jz 2f
  movl 0(%esi), %ecx
  movl 4(%esi), %eax
  movl 8(%esi), %edx
  wrmsr
  addl $12, %esi
  decl %ebx
  jmp 1b
2:
  lock incl CountCPUs
1:hlt
  jmp 1b

#NO_APP
	.section	.text.handle_12,"ax",@progbits
.globl handle_12
	.type	handle_12, @function
handle_12:
.LFB77:
	.file 1 "src/misc.c"
	.loc 1 28 0
	.cfi_startproc
.LVL0:
	.loc 1 30 0
	movl	$64, %edx
#APP
# 30 "src/misc.c" 1
	movw %dx, %ES
# 0 "" 2
#NO_APP
.LBB7124:
#APP
# 30 "src/misc.c" 1
	movw %ES:19, %dx
# 0 "" 2
.LVL1:
#NO_APP
.LBE7124:
	movw	%dx, 28(%eax)
	.loc 1 31 0
	ret
	.cfi_endproc
.LFE77:
	.size	handle_12, .-handle_12
	.section	.text.handle_11,"ax",@progbits
.globl handle_11
	.type	handle_11, @function
handle_11:
.LFB78:
	.loc 1 36 0
	.cfi_startproc
.LVL2:
	.loc 1 38 0
	movl	$64, %edx
#APP
# 38 "src/misc.c" 1
	movw %dx, %ES
# 0 "" 2
#NO_APP
.LBB7125:
#APP
# 38 "src/misc.c" 1
	movw %ES:16, %dx
# 0 "" 2
.LVL3:
#NO_APP
.LBE7125:
	movw	%dx, 28(%eax)
	.loc 1 39 0
	ret
	.cfi_endproc
.LFE78:
	.size	handle_11, .-handle_11
	.section	.text.handle_10,"ax",@progbits
.globl handle_10
	.type	handle_10, @function
handle_10:
.LFB80:
	.loc 1 51 0
	.cfi_startproc
.LVL4:
	.loc 1 54 0
	ret
	.cfi_endproc
.LFE80:
	.size	handle_10, .-handle_10
	.section	.text.handle_02,"ax",@progbits
.globl handle_02
	.type	handle_02, @function
handle_02:
.LFB81:
	.loc 1 59 0
	.cfi_startproc
	.loc 1 59 0
	movl	$__func__.2106, %ecx
.LVL5:
.LBB7126:
.LBB7127:
.LBB7128:
.LBB7129:
.LBB7130:
.LBB7131:
.LBB7132:
.LBB7133:
.LBB7134:
	.file 2 "src/ioport.h"
	.loc 2 83 0
	movl	$1026, %edx
.LVL6:
.L9:
.LBE7134:
.LBE7133:
.LBE7132:
.LBE7131:
.LBE7130:
.LBB7139:
	.file 3 "src/output.c"
	.loc 3 161 0
#APP
# 161 "src/output.c" 1
	movb %CS:(%ecx), %al
# 0 "" 2
#NO_APP
.LBE7139:
	.loc 3 162 0
	testb	%al, %al
	je	.L8
.LBB7140:
.LBB7138:
.LBB7137:
.LBB7136:
.LBB7135:
	.loc 2 83 0
#APP
# 83 "src/ioport.h" 1
	outb %al, %dx
# 0 "" 2
#NO_APP
.LBE7135:
.LBE7136:
.LBE7137:
.LBE7138:
.LBE7140:
.LBE7129:
	.loc 3 160 0
	incl	%ecx
	jmp	.L9
.L8:
.LBE7128:
.LBE7127:
.LBB7141:
.LBB7142:
.LBB7143:
.LBB7144:
.LBB7145:
	.loc 2 83 0
	movl	$1026, %edx
	movb	$10, %al
.LVL7:
#APP
# 83 "src/ioport.h" 1
	outb %al, %dx
# 0 "" 2
#NO_APP
.LBE7145:
.LBE7144:
.LBE7143:
.LBE7142:
.LBE7141:
.LBE7126:
	.loc 1 61 0
	ret
	.cfi_endproc
.LFE81:
	.size	handle_02, .-handle_02
	.section	.text.handle_75,"ax",@progbits
.globl handle_75
	.type	handle_75, @function
handle_75:
.LFB83:
	.loc 1 75 0
	.cfi_startproc
	pushl	%edi
.LCFI0:
	.cfi_def_cfa_offset 8
	pushl	%esi
.LCFI1:
	.cfi_def_cfa_offset 12
	pushl	%ebx
.LCFI2:
	.cfi_def_cfa_offset 16
	.loc 1 75 0
	movl	$__func__.2165, %ecx
.LVL8:
.LBB7146:
.LBB7147:
.LBB7148:
.LBB7149:
.LBB7150:
.LBB7151:
.LBB7152:
.LBB7153:
.LBB7154:
	.loc 2 83 0
	movl	$1026, %edx
.LVL9:
.L14:
.LBE7154:
.LBE7153:
.LBE7152:
.LBE7151:
.LBE7150:
.LBB7159:
	.loc 3 161 0
#APP
# 161 "src/output.c" 1
	movb %CS:(%ecx), %al
# 0 "" 2
#NO_APP
.LBE7159:
	.loc 3 162 0
	testb	%al, %al
	je	.L13
	.cfi_offset 3, -16
	.cfi_offset 6, -12
	.cfi_offset 7, -8
.LBB7160:
.LBB7158:
.LBB7157:
.LBB7156:
.LBB7155:
	.loc 2 83 0
#APP
# 83 "src/ioport.h" 1
	outb %al, %dx
# 0 "" 2
#NO_APP
.LBE7155:
.LBE7156:
.LBE7157:
.LBE7158:
.LBE7160:
.LBE7149:
	.loc 3 160 0
	incl	%ecx
	jmp	.L14
.L13:
.LBE7148:
.LBE7147:
.LBB7161:
.LBB7162:
.LBB7163:
.LBB7164:
.LBB7165:
	.loc 2 83 0
	movl	$1026, %edx
	movb	$10, %al
.LVL10:
#APP
# 83 "src/ioport.h" 1
	outb %al, %dx
# 0 "" 2
#NO_APP
.LBE7165:
.LBE7164:
.LBE7163:
.LBE7162:
.LBE7161:
.LBE7146:
.LBB7166:
.LBB7167:
	.loc 2 83 0
	xorl	%eax, %eax
#APP
# 83 "src/ioport.h" 1
	outb %al, $240
# 0 "" 2
#NO_APP
.LBE7167:
.LBE7166:
.LBB7168:
.LBB7169:
.LBB7170:
	movb	$32, %al
#APP
# 83 "src/ioport.h" 1
	outb %al, $160
# 0 "" 2
#NO_APP
.LBE7170:
.LBE7169:
.LBB7171:
.LBB7172:
.LBB7173:
#APP
# 83 "src/ioport.h" 1
	outb %al, $32
# 0 "" 2
#NO_APP
.LBE7173:
.LBE7172:
.LBE7171:
.LBE7168:
	.loc 1 84 0
	xorl	%eax, %eax
.LVL11:
#APP
# 84 "src/misc.c" 1
	pushl %ebp
sti
stc
int $2
pushfl
popl %ecx
cli
cld
popl %ebp
# 0 "" 2
.LVL12:
	.loc 1 85 0
#NO_APP
	popl	%ebx
	popl	%esi
	popl	%edi
	ret
	.cfi_endproc
.LFE83:
	.size	handle_75, .-handle_75
	.section	.text.allocSpace.3243,"ax",@progbits
	.type	allocSpace.3243, @function
allocSpace.3243:
.LFB147:
	.file 4 "src/pmm.c"
	.loc 4 65 0
	.cfi_startproc
.LVL13:
	pushl	%ebp
.LCFI3:
	.cfi_def_cfa_offset 8
	pushl	%edi
.LCFI4:
	.cfi_def_cfa_offset 12
	pushl	%esi
.LCFI5:
	.cfi_def_cfa_offset 16
	pushl	%ebx
.LCFI6:
	.cfi_def_cfa_offset 20
	subl	$4, %esp
.LCFI7:
	.cfi_def_cfa_offset 24
	movl	24(%esp), %ebx
	.cfi_offset 3, -20
	.cfi_offset 6, -16
	.cfi_offset 7, -12
	.cfi_offset 5, -8
	.loc 4 67 0
	xorl	%esi, %esi
#APP
# 67 "src/pmm.c" 1
	movw %si, %ES
# 0 "" 2
#NO_APP
.LBB7174:
#APP
# 67 "src/pmm.c" 1
	addr32 movl %ES:(%eax), %esi
# 0 "" 2
.LVL14:
#NO_APP
.LBE7174:
.LBB7175:
	.loc 4 68 0
	xorl	%ebp, %ebp
	.loc 4 70 0
	negl	%ecx
.LVL15:
.LBE7175:
	.loc 4 67 0
	jmp	.L17
.LVL16:
.L21:
.LBB7180:
	.loc 4 68 0
#APP
# 68 "src/pmm.c" 1
	movw %bp, %ES
# 0 "" 2
#NO_APP
.LBB7176:
#APP
# 68 "src/pmm.c" 1
	addr32 movl %ES:12(%esi), %eax
# 0 "" 2
.LVL17:
#NO_APP
	movl	%eax, (%esp)
.LBE7176:
	.loc 4 69 0
#APP
# 69 "src/pmm.c" 1
	movw %bp, %ES
# 0 "" 2
#NO_APP
.LBB7177:
#APP
# 69 "src/pmm.c" 1
	addr32 movl %ES:16(%esi), %edi
# 0 "" 2
#NO_APP
.LBE7177:
	.loc 4 70 0
	movl	%edi, %eax
.LVL18:
	subl	%edx, %eax
	andl	%ecx, %eax
	.loc 4 71 0
	cmpl	%edi, %eax
	ja	.L18
	cmpl	(%esp), %eax
	jb	.L18
.LBB7178:
	.loc 4 73 0
	xorl	%ecx, %ecx
#APP
# 73 "src/pmm.c" 1
	movw %cx, %ES
# 0 "" 2
#NO_APP
.LBB7179:
#APP
# 73 "src/pmm.c" 1
	addr32 movl %ES:4(%esi), %ebp
# 0 "" 2
.LVL19:
#NO_APP
.LBE7179:
	.loc 4 74 0
	testl	%ebx, %ebx
	jne	.L19
	.loc 4 75 0
	movl	%eax, %ebx
.LVL20:
.L19:
	.loc 4 76 0
	xorl	%ecx, %ecx
#APP
# 76 "src/pmm.c" 1
	movw %cx, %ES
# 0 "" 2
# 76 "src/pmm.c" 1
	addr32 movl %esi, %ES:(%ebx)
# 0 "" 2
	.loc 4 77 0
# 77 "src/pmm.c" 1
	movw %cx, %ES
# 0 "" 2
# 77 "src/pmm.c" 1
	addr32 movl %ebp, %ES:4(%ebx)
# 0 "" 2
	.loc 4 78 0
# 78 "src/pmm.c" 1
	movw %cx, %ES
# 0 "" 2
# 78 "src/pmm.c" 1
	addr32 movl %eax, %ES:8(%ebx)
# 0 "" 2
	.loc 4 79 0
# 79 "src/pmm.c" 1
	movw %cx, %ES
# 0 "" 2
#NO_APP
	leal	(%eax,%edx), %edx
.LVL21:
#APP
# 79 "src/pmm.c" 1
	addr32 movl %edx, %ES:12(%ebx)
# 0 "" 2
	.loc 4 80 0
# 80 "src/pmm.c" 1
	movw %cx, %ES
# 0 "" 2
# 80 "src/pmm.c" 1
	addr32 movl %edi, %ES:16(%ebx)
# 0 "" 2
	.loc 4 82 0
# 82 "src/pmm.c" 1
	movw %cx, %ES
# 0 "" 2
# 82 "src/pmm.c" 1
	addr32 movl %eax, %ES:16(%esi)
# 0 "" 2
	.loc 4 83 0
# 83 "src/pmm.c" 1
	movw %cx, %ES
# 0 "" 2
# 83 "src/pmm.c" 1
	addr32 movl %ebx, %ES:4(%esi)
# 0 "" 2
	.loc 4 84 0
# 84 "src/pmm.c" 1
	movw %cx, %ES
# 0 "" 2
# 84 "src/pmm.c" 1
	addr32 movl %ebx, %ES:(%ebp)
# 0 "" 2
	.loc 4 85 0
#NO_APP
	jmp	.L20
.LVL22:
.L18:
.LBE7178:
.LBE7180:
	.loc 4 67 0
#APP
# 67 "src/pmm.c" 1
	movw %bp, %ES
# 0 "" 2
#NO_APP
.LBB7181:
#APP
# 67 "src/pmm.c" 1
	addr32 movl %ES:(%esi), %esi
# 0 "" 2
.LVL23:
#NO_APP
.L17:
.LBE7181:
	testl	%esi, %esi
	jne	.L21
	xorl	%eax, %eax
.LVL24:
.L20:
.LVL25:
	.loc 4 89 0
	popl	%edx
.LCFI8:
	.cfi_def_cfa_offset 20
.LVL26:
	popl	%ebx
.LVL27:
	popl	%esi
.LVL28:
	popl	%edi
.LVL29:
	popl	%ebp
.LVL30:
	ret	$4
	.cfi_endproc
.LFE147:
	.size	allocSpace.3243, .-allocSpace.3243
	.section	.text.freeSpace.3524,"ax",@progbits
	.type	freeSpace.3524, @function
freeSpace.3524:
.LFB148:
	.loc 4 94 0
	.cfi_startproc
.LVL31:
	pushl	%edi
.LCFI9:
	.cfi_def_cfa_offset 8
	pushl	%esi
.LCFI10:
	.cfi_def_cfa_offset 12
	pushl	%ebx
.LCFI11:
	.cfi_def_cfa_offset 16
	.loc 4 95 0
	xorl	%edx, %edx
#APP
# 95 "src/pmm.c" 1
	movw %dx, %ES
# 0 "" 2
#NO_APP
.LBB7182:
#APP
# 95 "src/pmm.c" 1
	addr32 movl %ES:(%eax), %ecx
# 0 "" 2
.LVL32:
#NO_APP
.LBE7182:
	.loc 4 96 0
#APP
# 96 "src/pmm.c" 1
	movw %dx, %ES
# 0 "" 2
#NO_APP
.LBB7183:
#APP
# 96 "src/pmm.c" 1
	addr32 movl %ES:4(%eax), %ebx
# 0 "" 2
.LVL33:
#NO_APP
.LBE7183:
	.loc 4 97 0
#APP
# 97 "src/pmm.c" 1
	movw %dx, %ES
# 0 "" 2
# 97 "src/pmm.c" 1
	addr32 movl %ecx, %ES:(%ebx)
# 0 "" 2
	.loc 4 98 0
#NO_APP
	testl	%ecx, %ecx
	je	.L26
	.cfi_offset 3, -16
	.cfi_offset 6, -12
	.cfi_offset 7, -8
	.loc 4 99 0
#APP
# 99 "src/pmm.c" 1
	movw %dx, %ES
# 0 "" 2
#NO_APP
.LBB7184:
#APP
# 99 "src/pmm.c" 1
	addr32 movl %ES:16(%ecx), %edi
# 0 "" 2
.LVL34:
#NO_APP
.LBE7184:
#APP
# 99 "src/pmm.c" 1
	movw %dx, %ES
# 0 "" 2
#NO_APP
.LBB7185:
#APP
# 99 "src/pmm.c" 1
	addr32 movl %ES:8(%eax), %esi
# 0 "" 2
.LVL35:
#NO_APP
.LBE7185:
	cmpl	%esi, %edi
	jne	.L25
	.loc 4 100 0
#APP
# 100 "src/pmm.c" 1
	movw %dx, %ES
# 0 "" 2
#NO_APP
.LBB7186:
#APP
# 100 "src/pmm.c" 1
	addr32 movl %ES:16(%eax), %eax
# 0 "" 2
.LVL36:
#NO_APP
.LBE7186:
#APP
# 100 "src/pmm.c" 1
	addr32 movl %eax, %ES:16(%ecx)
# 0 "" 2
.LVL37:
#NO_APP
.L25:
	.loc 4 101 0
	xorl	%eax, %eax
.LVL38:
#APP
# 101 "src/pmm.c" 1
	movw %ax, %ES
# 0 "" 2
# 101 "src/pmm.c" 1
	addr32 movl %ebx, %ES:4(%ecx)
# 0 "" 2
.LVL39:
#NO_APP
.L26:
	.loc 4 103 0
	popl	%ebx
.LVL40:
	popl	%esi
.LVL41:
	popl	%edi
.LVL42:
	ret
	.cfi_endproc
.LFE148:
	.size	freeSpace.3524, .-freeSpace.3524
	.section	.text.pmm_free.1862,"ax",@progbits
	.type	pmm_free.1862, @function
pmm_free.1862:
.LFB158:
	.loc 4 371 0
	.cfi_startproc
.LVL43:
	pushl	%esi
.LCFI12:
	.cfi_def_cfa_offset 8
	pushl	%ebx
.LCFI13:
	.cfi_def_cfa_offset 12
	.loc 4 371 0
	xorl	%ecx, %ecx
.LVL44:
.LBB7187:
.LBB7188:
.LBB7189:
	.loc 4 161 0
	xorl	%edx, %edx
.LVL45:
.L31:
#APP
# 161 "src/pmm.c" 1
	movw %dx, %ES
# 0 "" 2
#NO_APP
.LBB7190:
#APP
# 161 "src/pmm.c" 1
	addr32 movl %ES:Zones(,%ecx,4), %ebx
# 0 "" 2
.LVL46:
#NO_APP
.LBE7190:
	.loc 4 163 0
#APP
# 163 "src/pmm.c" 1
	movw %dx, %ES
# 0 "" 2
#NO_APP
.LBB7191:
#APP
# 163 "src/pmm.c" 1
	addr32 movl %ES:(%ebx), %ebx
# 0 "" 2
.LVL47:
#NO_APP
	jmp	.L28
	.cfi_offset 3, -12
	.cfi_offset 6, -8
.L30:
.LBE7191:
	.loc 4 164 0
#APP
# 164 "src/pmm.c" 1
	movw %dx, %ES
# 0 "" 2
#NO_APP
.LBB7192:
#APP
# 164 "src/pmm.c" 1
	addr32 movl %ES:8(%ebx), %esi
# 0 "" 2
#NO_APP
.LBE7192:
	cmpl	%eax, %esi
	je	.L29
	.loc 4 163 0
#APP
# 163 "src/pmm.c" 1
	movw %dx, %ES
# 0 "" 2
#NO_APP
.LBB7193:
#APP
# 163 "src/pmm.c" 1
	addr32 movl %ES:(%ebx), %ebx
# 0 "" 2
#NO_APP
.L28:
.LBE7193:
	testl	%ebx, %ebx
	jne	.L30
.LBE7189:
	.loc 4 160 0
	incl	%ecx
	cmpl	$5, %ecx
	jne	.L31
.L29:
.LBE7188:
.LBE7187:
	.loc 4 373 0
	cmpl	%ebx, %eax
	je	.L32
	testl	%ebx, %ebx
	je	.L32
	xorl	%edx, %edx
#APP
# 373 "src/pmm.c" 1
	movw %dx, %ES
# 0 "" 2
#NO_APP
.LBB7194:
#APP
# 373 "src/pmm.c" 1
	addr32 movl %ES:12(%ebx), %edx
# 0 "" 2
.LVL48:
#NO_APP
.LBE7194:
	cmpl	%edx, %eax
	je	.L32
	.loc 4 378 0
	movl	%ebx, %eax
.LVL49:
	call	freeSpace.3524
.LVL50:
	.loc 4 379 0
	leal	-20(%ebx), %eax
	call	freeSpace.3524
	xorl	%eax, %eax
	.loc 4 380 0
	jmp	.L33
.LVL51:
.L32:
	orl	$-1, %eax
.LVL52:
.L33:
	.loc 4 381 0
	popl	%ebx
.LVL53:
	popl	%esi
.LVL54:
	ret
	.cfi_endproc
.LFE158:
	.size	pmm_free.1862, .-pmm_free.1862
	.section	.text.pmm_getspace.4532,"ax",@progbits
	.type	pmm_getspace.4532, @function
pmm_getspace.4532:
.LFB159:
	.loc 4 386 0
	.cfi_startproc
.LVL55:
	pushl	%edi
.LCFI14:
	.cfi_def_cfa_offset 8
	pushl	%esi
.LCFI15:
	.cfi_def_cfa_offset 12
	pushl	%ebx
.LCFI16:
	.cfi_def_cfa_offset 16
	movl	%eax, %ebx
	.cfi_offset 3, -16
	.cfi_offset 6, -12
	.cfi_offset 7, -8
	.loc 4 391 0
	xorl	%eax, %eax
.LVL56:
#APP
# 391 "src/pmm.c" 1
	movw %ax, %ES
# 0 "" 2
#NO_APP
.LBB7195:
#APP
# 391 "src/pmm.c" 1
	addr32 movl %ES:(%ebx), %edx
# 0 "" 2
.LVL57:
#NO_APP
.LBE7195:
.LBB7196:
	.loc 4 392 0
	xorl	%esi, %esi
.LBE7196:
	.loc 4 391 0
	jmp	.L37
.LVL58:
.L39:
.LBB7199:
	.loc 4 392 0
#APP
# 392 "src/pmm.c" 1
	movw %si, %ES
# 0 "" 2
#NO_APP
.LBB7197:
#APP
# 392 "src/pmm.c" 1
	addr32 movl %ES:16(%edx), %ecx
# 0 "" 2
#NO_APP
.LBE7197:
#APP
# 392 "src/pmm.c" 1
	movw %si, %ES
# 0 "" 2
#NO_APP
.LBB7198:
#APP
# 392 "src/pmm.c" 1
	addr32 movl %ES:12(%edx), %edi
# 0 "" 2
#NO_APP
	subl	%edi, %ecx
	cmpl	%ecx, %eax
	jae	.L38
	movl	%ecx, %eax
.L38:
.LBE7198:
.LBE7199:
	.loc 4 391 0
#APP
# 391 "src/pmm.c" 1
	movw %si, %ES
# 0 "" 2
#NO_APP
.LBB7200:
#APP
# 391 "src/pmm.c" 1
	addr32 movl %ES:(%edx), %edx
# 0 "" 2
#NO_APP
.L37:
.LBE7200:
	testl	%edx, %edx
	jne	.L39
	.loc 4 397 0
	cmpl	$ZoneTmpHigh, %ebx
	je	.L40
	cmpl	$ZoneTmpLow, %ebx
	jne	.L41
.L40:
	.loc 4 401 0
	cmpl	$48, %eax
	ja	.L42
	xorl	%eax, %eax
	jmp	.L41
.L42:
	.loc 4 403 0
	subl	$48, %eax
.L41:
.LVL59:
	.loc 4 404 0
	popl	%ebx
.LVL60:
	popl	%esi
	popl	%edi
.LVL61:
	ret
	.cfi_endproc
.LFE159:
	.size	pmm_getspace.4532, .-pmm_getspace.4532
	.section	.text.floppy_pio.12615,"ax",@progbits
	.type	floppy_pio.12615, @function
floppy_pio.12615:
.LFB601:
	.file 5 "src/floppy.c"
	.loc 5 224 0
	.cfi_startproc
.LVL62:
	pushl	%ebp
.LCFI17:
	.cfi_def_cfa_offset 8
	pushl	%edi
.LCFI18:
	.cfi_def_cfa_offset 12
	pushl	%esi
.LCFI19:
	.cfi_def_cfa_offset 16
	pushl	%ebx
.LCFI20:
	.cfi_def_cfa_offset 20
	subl	$4, %esp
.LCFI21:
	.cfi_def_cfa_offset 24
	movl	%eax, %ebx
	.cfi_offset 3, -20
	.cfi_offset 6, -16
	.cfi_offset 7, -12
	.cfi_offset 5, -8
	movb	%dl, 3(%esp)
	.loc 5 224 0
	movzbl	1(%eax), %esi
	andl	$1, %esi
.LVL63:
.LBB7201:
.LBB7202:
.LBB7203:
	.loc 5 200 0
	movl	$64, %ecx
#APP
# 200 "src/floppy.c" 1
	movw %cx, %ES
# 0 "" 2
#NO_APP
.LBB7204:
#APP
# 200 "src/floppy.c" 1
	movb %ES:62, %al
# 0 "" 2
.LVL64:
#NO_APP
.LBE7204:
.LBB7205:
	andl	$127, %eax
.LVL65:
#APP
# 200 "src/floppy.c" 1
	movb %al, %ES:62
# 0 "" 2
#NO_APP
.LBE7205:
.LBE7203:
.LBB7206:
.LBB7207:
	.loc 2 93 0
	movl	$1010, %edx
.LVL66:
#APP
# 93 "src/ioport.h" 1
	inb %dx, %al
# 0 "" 2
.LVL67:
#NO_APP
	movl	%eax, %edi
.LVL68:
.LBE7207:
.LBE7206:
	.loc 5 205 0
	movl	%esi, %eax
	cmpb	$1, %al
	sbbl	%eax, %eax
	movl	%eax, %ebp
	andl	$-16, %ebp
.LVL69:
	addl	$32, %ebp
.LVL70:
	.loc 5 207 0
	movl	%esi, %eax
	orl	$12, %eax
.LBB7208:
.LBB7209:
	.loc 2 83 0
	orl	%ebp, %eax
#APP
# 83 "src/ioport.h" 1
	outb %al, %dx
# 0 "" 2
#NO_APP
.LBE7209:
.LBE7208:
.LBB7210:
	.loc 5 212 0
#APP
# 212 "src/floppy.c" 1
	movw %cx, %ES
# 0 "" 2
#NO_APP
	movb	$37, %al
#APP
# 212 "src/floppy.c" 1
	movb %al, %ES:64
# 0 "" 2
#NO_APP
.LBE7210:
.LBB7211:
.LBB7212:
	.loc 2 93 0
	movb	$-12, %dl
.L47:
#APP
# 93 "src/ioport.h" 1
	inb %dx, %al
# 0 "" 2
.LVL71:
#NO_APP
.LBE7212:
.LBE7211:
	.loc 5 215 0
	andl	$192, %eax
.LVL72:
	addl	$-128, %eax
	jne	.L47
	.loc 5 218 0
	andl	$4, %edi
	jne	.L48
.LBB7213:
.LBB7214:
	.loc 5 182 0
	movl	$64, %ecx
.LBB7215:
	xorl	%edx, %edx
.LVL73:
.L61:
.LBE7215:
#APP
# 182 "src/floppy.c" 1
	movw %cx, %ES
# 0 "" 2
#NO_APP
.LBB7216:
#APP
# 182 "src/floppy.c" 1
	movb %ES:64(%edx), %al
# 0 "" 2
.LVL74:
#NO_APP
.LBE7216:
	testb	%al, %al
	je	.L48
	.loc 5 184 0
#APP
# 184 "src/floppy.c" 1
	movw %cx, %ES
# 0 "" 2
#NO_APP
.LBB7217:
#APP
# 184 "src/floppy.c" 1
	movb %ES:62(%edx), %al
# 0 "" 2
.LVL75:
#NO_APP
.LBE7217:
	.loc 5 185 0
	testb	%al, %al
	js	.L49
.LBB7218:
.LBB7219:
.LBB7220:
.LBB7221:
	.file 6 "src/stacks.c"
	.loc 6 108 0
#APP
# 108 "src/stacks.c" 1
	sti
nop
rep ; nop
cli
cld

# 0 "" 2
#NO_APP
	jmp	.L61
.L49:
.LBE7221:
.LBE7220:
.LBE7219:
.LBE7218:
	.loc 5 192 0
	andl	$127, %eax
.LVL76:
.LBB7222:
	.loc 5 193 0
	movl	$64, %edx
#APP
# 193 "src/floppy.c" 1
	movw %dx, %ES
# 0 "" 2
#NO_APP
	xorb	%dl, %dl
#APP
# 193 "src/floppy.c" 1
	movb %al, %ES:62(%edx)
# 0 "" 2
.LVL77:
#NO_APP
.L48:
	xorl	%ecx, %ecx
.LVL78:
.LBE7222:
.LBE7214:
.LBE7213:
.LBE7202:
.LBE7201:
.LBB7223:
.LBB7224:
	.loc 2 83 0
	movl	$1013, %edx
	jmp	.L51
.L52:
	movb	(%ebx), %al
.LVL79:
#APP
# 83 "src/ioport.h" 1
	outb %al, %dx
# 0 "" 2
#NO_APP
.LBE7224:
.LBE7223:
	.loc 5 229 0
	incl	%ecx
.LVL80:
	incl	%ebx
.LVL81:
.L51:
	cmpb	3(%esp), %cl
	jb	.L52
.LBB7225:
.LBB7226:
	.loc 5 182 0
	movl	$64, %ecx
.LVL82:
.LBB7227:
	xorl	%edx, %edx
.LVL83:
.L62:
.LBE7227:
#APP
# 182 "src/floppy.c" 1
	movw %cx, %ES
# 0 "" 2
#NO_APP
.LBB7228:
#APP
# 182 "src/floppy.c" 1
	movb %ES:64(%edx), %al
# 0 "" 2
.LVL84:
#NO_APP
.LBE7228:
	testb	%al, %al
	je	.L53
	.loc 5 184 0
#APP
# 184 "src/floppy.c" 1
	movw %cx, %ES
# 0 "" 2
#NO_APP
.LBB7229:
#APP
# 184 "src/floppy.c" 1
	movb %ES:62(%edx), %al
# 0 "" 2
.LVL85:
#NO_APP
.LBE7229:
	.loc 5 185 0
	testb	%al, %al
	js	.L54
.LBB7230:
.LBB7231:
.LBB7232:
.LBB7233:
	.loc 6 108 0
#APP
# 108 "src/stacks.c" 1
	sti
nop
rep ; nop
cli
cld

# 0 "" 2
#NO_APP
	jmp	.L62
.L54:
.LBE7233:
.LBE7232:
.LBE7231:
.LBE7230:
	.loc 5 192 0
	andl	$127, %eax
.LVL86:
.LBB7234:
	.loc 5 193 0
	movl	$64, %edx
#APP
# 193 "src/floppy.c" 1
	movw %dx, %ES
# 0 "" 2
#NO_APP
	xorb	%dl, %dl
#APP
# 193 "src/floppy.c" 1
	movb %al, %ES:62(%edx)
# 0 "" 2
#NO_APP
	xorl	%eax, %eax
.LVL87:
	jmp	.L56
.LVL88:
.L53:
.LBE7234:
.LBE7226:
.LBE7225:
.LBB7235:
.LBB7236:
.LBB7237:
.LBB7238:
	.loc 2 93 0
	movl	$1010, %edx
#APP
# 93 "src/ioport.h" 1
	inb %dx, %al
# 0 "" 2
.LVL89:
#NO_APP
	movb	%al, %cl
.LVL90:
.LBE7238:
.LBE7237:
.LBB7239:
.LBB7240:
	.loc 2 83 0
	movl	%ecx, %eax
.LVL91:
	andl	$251, %eax
#APP
# 83 "src/ioport.h" 1
	outb %al, %dx
# 0 "" 2
#NO_APP
.LBE7240:
.LBE7239:
.LBB7241:
.LBB7242:
	movb	%cl, %al
.LVL92:
	orl	$4, %eax
#APP
# 83 "src/ioport.h" 1
	outb %al, %dx
# 0 "" 2
#NO_APP
.LBE7242:
.LBE7241:
.LBB7243:
.LBB7244:
	.loc 2 93 0
	movb	$-12, %dl
.L57:
#APP
# 93 "src/ioport.h" 1
	inb %dx, %al
# 0 "" 2
.LVL93:
#NO_APP
.LBE7244:
.LBE7243:
	.loc 5 172 0
	andl	$192, %eax
.LVL94:
	addl	$-128, %eax
	jne	.L57
	orl	$-1, %eax
.L56:
.LBE7236:
.LBE7235:
	.loc 5 239 0
	popl	%ecx
.LCFI22:
	.cfi_def_cfa_offset 20
.LVL95:
	popl	%ebx
.LVL96:
	popl	%esi
.LVL97:
	popl	%edi
.LVL98:
	popl	%ebp
.LVL99:
	ret
	.cfi_endproc
.LFE601:
	.size	floppy_pio.12615, .-floppy_pio.12615
	.section	.text.floppy_cmd.12638,"ax",@progbits
	.type	floppy_cmd.12638, @function
floppy_cmd.12638:
.LFB602:
	.loc 5 243 0
	.cfi_startproc
.LVL100:
	pushl	%ebp
.LCFI23:
	.cfi_def_cfa_offset 8
	pushl	%edi
.LCFI24:
	.cfi_def_cfa_offset 12
	pushl	%esi
.LCFI25:
	.cfi_def_cfa_offset 16
	pushl	%ebx
.LCFI26:
	.cfi_def_cfa_offset 20
	subl	$4, %esp
.LCFI27:
	.cfi_def_cfa_offset 24
	movl	%ecx, %ebx
	.cfi_offset 3, -20
	.cfi_offset 6, -16
	.cfi_offset 7, -12
	.cfi_offset 5, -8
	movb	24(%esp), %cl
.LVL101:
	movb	%cl, 3(%esp)
	.loc 5 245 0
	movl	8(%eax), %ecx
.LVL102:
	.loc 5 248 0
	leal	-1(%edx), %esi
.LVL103:
	.loc 5 250 0
	movl	%ecx, %ebp
	shrl	$16, %ebp
	movzwl	%si, %edx
.LVL104:
	addl	%ecx, %edx
.LVL105:
	shrl	$16, %edx
	movl	$9, %eax
.LVL106:
	cmpl	%edx, %ebp
	jne	.L65
	.loc 5 254 0
	cmpb	$-26, (%ebx)
	setne	%dl
	leal	70(,%edx,4), %edx
.LBB7245:
.LBB7246:
	.loc 2 83 0
	movb	$6, %al
#APP
# 83 "src/ioport.h" 1
	outb %al, $10
# 0 "" 2
#NO_APP
.LBE7246:
.LBE7245:
.LBB7247:
.LBB7248:
	xorl	%edi, %edi
	movl	%edi, %eax
#APP
# 83 "src/ioport.h" 1
	outb %al, $12
# 0 "" 2
#NO_APP
.LBE7248:
.LBE7247:
.LBB7249:
.LBB7250:
	movb	%cl, %al
.LVL107:
#APP
# 83 "src/ioport.h" 1
	outb %al, $4
# 0 "" 2
#NO_APP
.LBE7250:
.LBE7249:
.LBB7251:
.LBB7252:
	movl	%ecx, %eax
.LVL108:
	shrl	$8, %eax
#APP
# 83 "src/ioport.h" 1
	outb %al, $4
# 0 "" 2
#NO_APP
.LBE7252:
.LBE7251:
.LBB7253:
.LBB7254:
	movl	%edi, %eax
#APP
# 83 "src/ioport.h" 1
	outb %al, $12
# 0 "" 2
#NO_APP
.LBE7254:
.LBE7253:
.LBB7255:
.LBB7256:
	movl	%esi, %eax
#APP
# 83 "src/ioport.h" 1
	outb %al, $5
# 0 "" 2
#NO_APP
.LBE7256:
.LBE7255:
.LBB7257:
.LBB7258:
	movl	%esi, %eax
.LVL109:
	shrw	$8, %ax
#APP
# 83 "src/ioport.h" 1
	outb %al, $5
# 0 "" 2
#NO_APP
.LBE7258:
.LBE7257:
.LBB7259:
.LBB7260:
	movb	%dl, %al
#APP
# 83 "src/ioport.h" 1
	outb %al, $11
# 0 "" 2
#NO_APP
.LBE7260:
.LBE7259:
.LBB7261:
.LBB7262:
	movl	%ebp, %eax
#APP
# 83 "src/ioport.h" 1
	outb %al, $129
# 0 "" 2
#NO_APP
.LBE7262:
.LBE7261:
.LBB7263:
.LBB7264:
	movb	$2, %al
#APP
# 83 "src/ioport.h" 1
	outb %al, $10
# 0 "" 2
#NO_APP
.LBE7264:
.LBE7263:
	.loc 5 276 0
	movzbl	3(%esp), %edx
.LVL110:
	movl	%ebx, %eax
	call	floppy_pio.12615
.LVL111:
	movl	%eax, %edx
.LVL112:
	.loc 5 277 0
	movl	$128, %eax
	testl	%edx, %edx
	jne	.L65
.LBB7265:
.LBB7266:
	.loc 2 93 0
	movl	$1012, %edx
.LVL113:
#APP
# 93 "src/ioport.h" 1
	inb %dx, %al
# 0 "" 2
.LVL114:
#NO_APP
.LBE7266:
.LBE7265:
	.loc 5 281 0
	movl	%eax, %edx
.LVL115:
	andl	$192, %edx
	movl	$32, %eax
	cmpl	$192, %edx
	jne	.L65
	xorl	%ecx, %ecx
.LBB7267:
.LBB7268:
.LBB7269:
	.loc 2 93 0
	movl	$1013, %edx
.LBE7269:
.LBE7268:
.LBB7271:
	.loc 5 289 0
	movl	$64, %esi
.LVL116:
.L70:
.LBE7271:
.LBB7272:
.LBB7270:
	.loc 2 93 0
#APP
# 93 "src/ioport.h" 1
	inb %dx, %al
# 0 "" 2
.LVL117:
#NO_APP
.LBE7270:
.LBE7272:
	.loc 5 288 0
	movb	%al, (%ebx,%ecx)
.LBB7273:
	.loc 5 289 0
#APP
# 289 "src/floppy.c" 1
	movw %si, %ES
# 0 "" 2
# 289 "src/floppy.c" 1
	movb %al, %ES:66(%ecx)
# 0 "" 2
#NO_APP
	incl	%ecx
.LBE7273:
.LBE7267:
	.loc 5 286 0
	cmpl	$7, %ecx
	jne	.L70
	xorl	%eax, %eax
.LVL118:
.L65:
	.loc 5 293 0
	popl	%ebx
.LCFI28:
	.cfi_def_cfa_offset 20
.LVL119:
	popl	%ebx
	popl	%esi
.LVL120:
	popl	%edi
	popl	%ebp
	ret	$4
	.cfi_endproc
.LFE602:
	.size	floppy_cmd.12638, .-floppy_cmd.12638
	.section	.text.check_recal_drive.12920,"ax",@progbits
	.type	check_recal_drive.12920, @function
check_recal_drive.12920:
.LFB606:
	.loc 5 363 0
	.cfi_startproc
.LVL121:
	pushl	%edi
.LCFI29:
	.cfi_def_cfa_offset 8
	pushl	%esi
.LCFI30:
	.cfi_def_cfa_offset 12
	pushl	%ebx
.LCFI31:
	.cfi_def_cfa_offset 16
	subl	$12, %esp
.LCFI32:
	.cfi_def_cfa_offset 28
	movl	%eax, %ebx
	.cfi_offset 3, -16
	.cfi_offset 6, -12
	.cfi_offset 7, -8
.LBB7274:
	.loc 5 364 0
#APP
# 364 "src/floppy.c" 1
	movl %CS:20(%eax), %eax
# 0 "" 2
.LVL122:
#NO_APP
.LBE7274:
	.loc 5 365 0
	movl	$64, %edx
#APP
# 365 "src/floppy.c" 1
	movw %dx, %ES
# 0 "" 2
#NO_APP
.LBB7275:
#APP
# 365 "src/floppy.c" 1
	movb %ES:62, %cl
# 0 "" 2
.LVL123:
#NO_APP
.LBE7275:
	movzbl	%al, %esi
.LVL124:
	movzbl	%cl, %ecx
.LVL125:
	btl	%esi, %ecx
	jnc	.L74
	.loc 5 366 0
#APP
# 366 "src/floppy.c" 1
	movw %dx, %ES
# 0 "" 2
#NO_APP
.LBB7276:
#APP
# 366 "src/floppy.c" 1
	movb %ES:144(%esi), %dl
# 0 "" 2
.LVL126:
#NO_APP
.LBE7276:
	.loc 5 365 0
	andb	$16, %dl
	jne	.L75
.L74:
.LBB7277:
.LBB7278:
	.loc 5 311 0
	movb	$7, (%esp)
	.loc 5 312 0
	movb	%al, 1(%esp)
	.loc 5 313 0
	movl	%esp, %eax
.LVL127:
	movl	$2, %edx
.LVL128:
	call	floppy_pio.12615
.LVL129:
.LBB7279:
	.loc 5 315 0
	movl	$64, %eax
#APP
# 315 "src/floppy.c" 1
	movw %ax, %ES
# 0 "" 2
#NO_APP
.LBB7280:
#APP
# 315 "src/floppy.c" 1
	movb %ES:62, %dl
# 0 "" 2
.LVL130:
#NO_APP
.LBE7280:
.LBB7281:
	movl	$1, %edi
	movl	%esi, %ecx
	sall	%cl, %edi
	orl	%edi, %edx
.LVL131:
#APP
# 315 "src/floppy.c" 1
	movb %dl, %ES:62
# 0 "" 2
#NO_APP
.LBE7281:
.LBE7279:
.LBB7282:
.LBB7283:
	.loc 5 303 0
#APP
# 303 "src/floppy.c" 1
	movw %ax, %ES
# 0 "" 2
#NO_APP
	xorl	%edx, %edx
.LVL132:
#APP
# 303 "src/floppy.c" 1
	movb %dl, %ES:148(%esi)
# 0 "" 2
#NO_APP
.LBE7283:
.LBE7282:
.LBE7278:
.LBE7277:
.LBB7284:
.LBB7285:
.LBB7286:
	.loc 5 353 0
#APP
# 353 "src/floppy.c" 1
	movb %CS:1(%ebx), %dl
# 0 "" 2
.LVL133:
#NO_APP
.LBE7286:
.LBB7287:
.LBB7288:
	.loc 5 354 0
	movzbl	%dl, %edx
.LVL134:
#APP
# 354 "src/floppy.c" 1
	movb %CS:FloppyInfo+6(,%edx,8), %cl
# 0 "" 2
.LVL135:
#NO_APP
.LBE7288:
#APP
# 354 "src/floppy.c" 1
	movw %ax, %ES
# 0 "" 2
# 354 "src/floppy.c" 1
	movb %cl, %ES:139
# 0 "" 2
#NO_APP
.LBE7287:
.LBB7289:
	.loc 5 355 0
#APP
# 355 "src/floppy.c" 1
	movl %CS:20(%ebx), %ecx
# 0 "" 2
.LVL136:
#NO_APP
.LBE7289:
.LBB7290:
.LBB7291:
	.loc 5 356 0
#APP
# 356 "src/floppy.c" 1
	movb %CS:FloppyInfo+7(,%edx,8), %dl
# 0 "" 2
.LVL137:
#NO_APP
.LBE7291:
#APP
# 356 "src/floppy.c" 1
	movw %ax, %ES
# 0 "" 2
#NO_APP
	movzbl	%cl, %eax
#APP
# 356 "src/floppy.c" 1
	movb %dl, %ES:144(%eax)
# 0 "" 2
.LVL138:
#NO_APP
.L75:
.LBE7290:
.LBE7285:
.LBE7284:
	.loc 5 375 0
	xorl	%eax, %eax
.LVL139:
	addl	$12, %esp
	popl	%ebx
.LVL140:
	popl	%esi
	popl	%edi
	ret
	.cfi_endproc
.LFE606:
	.size	check_recal_drive.12920, .-check_recal_drive.12920
	.section	.text.lba2chs.13002,"ax",@progbits
	.type	lba2chs.13002, @function
lba2chs.13002:
.LFB607:
	.loc 5 384 0
	.cfi_startproc
.LVL141:
	pushl	%edi
.LCFI33:
	.cfi_def_cfa_offset 8
	pushl	%esi
.LCFI34:
	.cfi_def_cfa_offset 12
	pushl	%ebx
.LCFI35:
	.cfi_def_cfa_offset 16
	movl	%eax, %ebx
	.cfi_offset 3, -16
	.cfi_offset 6, -12
	.cfi_offset 7, -8
	movl	%edx, %esi
	.loc 5 387 0
	movl	(%eax), %eax
.LVL142:
	incl	%eax
.LVL143:
.LBB7292:
	.loc 5 388 0
	movl	12(%ebx), %edx
.LVL144:
#APP
# 388 "src/floppy.c" 1
	movw %CS:6(%edx), %di
# 0 "" 2
.LVL145:
#NO_APP
.LBE7292:
	.loc 5 389 0
	movzwl	%di, %edi
.LVL146:
	xorl	%edx, %edx
	divl	%edi
.LVL147:
	movb	%dl, (%ecx)
.LBB7293:
	.loc 5 392 0
	movl	12(%ebx), %edx
#APP
# 392 "src/floppy.c" 1
	movw %CS:2(%edx), %cx
# 0 "" 2
.LVL148:
#NO_APP
.LBE7293:
	.loc 5 393 0
	movzwl	%cx, %ecx
.LVL149:
	xorl	%edx, %edx
	divl	%ecx
	movl	16(%esp), %ecx
	movb	%dl, (%ecx)
	.loc 5 396 0
	movb	%al, (%esi)
	.loc 5 397 0
	popl	%ebx
.LVL150:
	popl	%esi
.LVL151:
	popl	%edi
	ret	$4
	.cfi_endproc
.LFE607:
	.size	lba2chs.13002, .-lba2chs.13002
	.section	.text.process_floppy_op.1221,"ax",@progbits
	.type	process_floppy_op.1221, @function
process_floppy_op.1221:
.LFB613:
	.loc 5 549 0
	.cfi_startproc
.LVL152:
	pushl	%edi
.LCFI36:
	.cfi_def_cfa_offset 8
	pushl	%esi
.LCFI37:
	.cfi_def_cfa_offset 12
	pushl	%ebx
.LCFI38:
	.cfi_def_cfa_offset 16
	subl	$16, %esp
.LCFI39:
	.cfi_def_cfa_offset 32
	movl	%eax, %esi
	.cfi_offset 3, -16
	.cfi_offset 6, -12
	.cfi_offset 7, -8
	.loc 5 553 0
	movb	18(%eax), %al
.LVL153:
	cmpb	$3, %al
	je	.L83
	ja	.L86
	testb	%al, %al
	je	.L81
	cmpb	$2, %al
	jne	.L80
	jmp	.L100
.L86:
	cmpb	$4, %al
	je	.L84
	cmpb	$5, %al
	jne	.L80
	jmp	.L101
.L81:
.LBB7319:
.LBB7320:
.LBB7321:
	.loc 5 403 0
	movl	12(%esi), %edx
#APP
# 403 "src/floppy.c" 1
	movl %CS:20(%edx), %edx
# 0 "" 2
.LVL154:
#NO_APP
.LBE7321:
	.loc 5 404 0
	movzbl	%dl, %edx
.LVL155:
.LBB7322:
.LBB7323:
	.loc 5 303 0
	movl	$64, %ecx
#APP
# 303 "src/floppy.c" 1
	movw %cx, %ES
# 0 "" 2
# 303 "src/floppy.c" 1
	movb %al, %ES:148(%edx)
# 0 "" 2
#NO_APP
	xorl	%ebx, %ebx
.LVL156:
.LBE7323:
.LBE7322:
.LBE7320:
.LBE7319:
	.loc 5 555 0
	jmp	.L87
.LVL157:
.L100:
.LBB7324:
.LBB7325:
	.loc 5 412 0
	movl	12(%esi), %eax
	call	check_recal_drive.12920
	movl	%eax, %ebx
.LVL158:
	.loc 5 413 0
	testl	%eax, %eax
	jne	.L93
.LVL159:
	.loc 5 417 0
	leal	14(%esp), %ecx
	leal	13(%esp), %edx
	leal	15(%esp), %eax
.LVL160:
	pushl	%eax
.LCFI40:
	.cfi_def_cfa_offset 36
	movl	%esi, %eax
	.cfi_escape 0x2e,0x4
	call	lba2chs.13002
.LCFI41:
	.cfi_def_cfa_offset 32
.LBB7326:
	.loc 5 420 0
	movl	12(%esi), %eax
#APP
# 420 "src/floppy.c" 1
	movl %CS:20(%eax), %edi
# 0 "" 2
.LVL161:
#NO_APP
.LBE7326:
	.loc 5 422 0
	movb	$-26, 1(%esp)
	.loc 5 423 0
	movb	15(%esp), %dl
.LVL162:
	leal	0(,%edx,4), %eax
	orl	%edi, %eax
.LVL163:
	movb	%al, 2(%esp)
	.loc 5 424 0
	movb	13(%esp), %al
.LVL164:
	movb	%al, 3(%esp)
	.loc 5 425 0
	movb	%dl, 4(%esp)
	.loc 5 426 0
	movb	14(%esp), %al
.LVL165:
	movb	%al, 5(%esp)
	.loc 5 427 0
	movb	$2, 6(%esp)
	.loc 5 428 0
	movl	16(%esi), %edx
	leal	-1(%eax,%edx), %eax
	movb	%al, 7(%esp)
	.loc 5 429 0
	movb	$27, 8(%esp)
	.loc 5 430 0
	movb	$-1, 9(%esp)
	.loc 5 432 0
	leal	1(%esp), %ecx
	sall	$9, %edx
	movzwl	%dx, %edx
	pushl	$9
.LCFI42:
	.cfi_def_cfa_offset 36
	movl	%esi, %eax
	call	floppy_cmd.12638
.LCFI43:
	.cfi_def_cfa_offset 32
	movl	%eax, %ebx
	.loc 5 433 0
	testl	%eax, %eax
	jne	.L93
.LVL166:
	.loc 5 436 0
	testb	$-64, 1(%esp)
	jne	.L89
	.loc 5 442 0
	andl	$255, %edi
.LVL167:
.LBB7327:
.LBB7328:
	.loc 5 303 0
	movl	$64, %eax
.LVL168:
#APP
# 303 "src/floppy.c" 1
	movw %ax, %ES
# 0 "" 2
#NO_APP
	movb	13(%esp), %al
	jmp	.L97
.LVL169:
.L89:
	movl	$32, %ebx
.LVL170:
.L88:
	jmp	.L93
.LVL171:
.L83:
.LBE7328:
.LBE7327:
.LBE7325:
.LBE7324:
.LBB7329:
.LBB7330:
	.loc 5 453 0
	movl	12(%esi), %eax
	.cfi_escape 0x2e,0x0
	call	check_recal_drive.12920
	movl	%eax, %ebx
.LVL172:
	.loc 5 454 0
	testl	%eax, %eax
	jne	.L93
.LVL173:
	.loc 5 458 0
	leal	14(%esp), %ecx
	leal	15(%esp), %edx
	leal	13(%esp), %eax
.LVL174:
	pushl	%eax
.LCFI44:
	.cfi_def_cfa_offset 36
	movl	%esi, %eax
	.cfi_escape 0x2e,0x4
	call	lba2chs.13002
.LCFI45:
	.cfi_def_cfa_offset 32
.LBB7331:
	.loc 5 461 0
	movl	12(%esi), %eax
#APP
# 461 "src/floppy.c" 1
	movl %CS:20(%eax), %edi
# 0 "" 2
.LVL175:
#NO_APP
.LBE7331:
	.loc 5 463 0
	movb	$-59, 1(%esp)
	.loc 5 464 0
	movb	13(%esp), %dl
.LVL176:
	leal	0(,%edx,4), %eax
	orl	%edi, %eax
.LVL177:
	movb	%al, 2(%esp)
	.loc 5 465 0
	movb	15(%esp), %al
.LVL178:
	movb	%al, 3(%esp)
	.loc 5 466 0
	movb	%dl, 4(%esp)
	.loc 5 467 0
	movb	14(%esp), %al
.LVL179:
	movb	%al, 5(%esp)
	.loc 5 468 0
	movb	$2, 6(%esp)
	.loc 5 469 0
	movl	16(%esi), %edx
	leal	-1(%eax,%edx), %eax
	movb	%al, 7(%esp)
	.loc 5 470 0
	movb	$27, 8(%esp)
	.loc 5 471 0
	movb	$-1, 9(%esp)
	.loc 5 473 0
	leal	1(%esp), %ecx
	sall	$9, %edx
	movzwl	%dx, %edx
	pushl	$9
.LCFI46:
	.cfi_def_cfa_offset 36
	movl	%esi, %eax
	call	floppy_cmd.12638
.LCFI47:
	.cfi_def_cfa_offset 32
	movl	%eax, %ebx
	.loc 5 474 0
	testl	%eax, %eax
	jne	.L93
.LVL180:
	.loc 5 477 0
	testb	$-64, 1(%esp)
	je	.L91
	.loc 5 478 0
	movzbl	2(%esp), %eax
.LVL181:
	andl	$2, %eax
	cmpl	$1, %eax
	sbbl	%ebx, %ebx
	andl	$29, %ebx
	addl	$3, %ebx
	jmp	.L93
.LVL182:
.L91:
	.loc 5 486 0
	andl	$255, %edi
.LVL183:
.LBB7332:
.LBB7333:
	.loc 5 303 0
	movl	$64, %eax
.LVL184:
#APP
# 303 "src/floppy.c" 1
	movw %ax, %ES
# 0 "" 2
#NO_APP
	movb	15(%esp), %al
.LVL185:
.L97:
#APP
# 303 "src/floppy.c" 1
	movb %al, %ES:148(%edi)
# 0 "" 2
#NO_APP
	jmp	.L87
.L90:
.LVL186:
.L84:
.LBE7333:
.LBE7332:
.LBE7330:
.LBE7329:
.LBB7334:
.LBB7335:
	.loc 5 497 0
	movl	12(%esi), %eax
	.cfi_escape 0x2e,0x0
	call	check_recal_drive.12920
	movl	%eax, %ebx
.LVL187:
	.loc 5 498 0
	testl	%eax, %eax
	jne	.L93
.LVL188:
	.loc 5 502 0
	leal	14(%esp), %ecx
	leal	15(%esp), %edx
	leal	13(%esp), %eax
.LVL189:
	pushl	%eax
.LCFI48:
	.cfi_def_cfa_offset 36
	movl	%esi, %eax
	.cfi_escape 0x2e,0x4
	call	lba2chs.13002
.LCFI49:
	.cfi_def_cfa_offset 32
.LBB7336:
	.loc 5 505 0
	movl	12(%esi), %eax
#APP
# 505 "src/floppy.c" 1
	movl %CS:20(%eax), %eax
# 0 "" 2
.LVL190:
#NO_APP
.LBE7336:
	.loc 5 506 0
	movzbl	%al, %eax
.LVL191:
.LBB7337:
.LBB7338:
	.loc 5 303 0
	movl	$64, %edx
#APP
# 303 "src/floppy.c" 1
	movw %dx, %ES
# 0 "" 2
#NO_APP
	movb	15(%esp), %dl
.LVL192:
#APP
# 303 "src/floppy.c" 1
	movb %dl, %ES:148(%ebx,%eax)
# 0 "" 2
#NO_APP
	jmp	.L87
.LVL193:
.L93:
.LBE7338:
.LBE7337:
	.loc 5 509 0
	movw	$0, 16(%esi)
	jmp	.L87
.LVL194:
.L101:
.LBE7335:
.LBE7334:
.LBB7339:
.LBB7340:
	.loc 5 517 0
	movl	12(%esi), %eax
	.cfi_escape 0x2e,0x0
	call	check_recal_drive.12920
	movl	%eax, %ebx
.LVL195:
	.loc 5 518 0
	testl	%eax, %eax
	jne	.L87
.LVL196:
	.loc 5 521 0
	movb	(%esi), %al
.LVL197:
.LBB7341:
	.loc 5 524 0
	movl	12(%esi), %edx
#APP
# 524 "src/floppy.c" 1
	movl %CS:20(%edx), %edi
# 0 "" 2
.LVL198:
#NO_APP
.LBE7341:
	.loc 5 526 0
	movb	$77, 1(%esp)
	.loc 5 527 0
	sall	$2, %eax
.LVL199:
	orl	%edi, %eax
.LVL200:
	movb	%al, 2(%esp)
	.loc 5 528 0
	movb	$2, 3(%esp)
	.loc 5 529 0
	movl	16(%esi), %edx
	movb	%dl, 4(%esp)
	.loc 5 530 0
	movb	$108, 5(%esp)
	.loc 5 531 0
	movb	$-10, 6(%esp)
	.loc 5 533 0
	leal	1(%esp), %ecx
	sall	$2, %edx
	movzwl	%dx, %edx
	pushl	$6
.LCFI50:
	.cfi_def_cfa_offset 36
	movl	%esi, %eax
	.cfi_escape 0x2e,0x4
	call	floppy_cmd.12638
.LCFI51:
	.cfi_def_cfa_offset 32
	movl	%eax, %ebx
	.loc 5 534 0
	testl	%eax, %eax
	jne	.L87
.LVL201:
	.loc 5 537 0
	movb	1(%esp), %al
.LVL202:
	andb	$-64, %al
	je	.L94
	.loc 5 538 0
	movzbl	2(%esp), %eax
	andl	$2, %eax
	cmpl	$1, %eax
	sbbl	%ebx, %ebx
	andl	$29, %ebx
	addl	$3, %ebx
	jmp	.L87
.L94:
	.loc 5 543 0
	andl	$255, %edi
.LVL203:
.LBB7342:
.LBB7343:
	.loc 5 303 0
	movl	$64, %edx
#APP
# 303 "src/floppy.c" 1
	movw %dx, %ES
# 0 "" 2
#NO_APP
	jmp	.L97
.LVL204:
.L80:
.LBE7343:
.LBE7342:
.LBE7340:
.LBE7339:
	.loc 5 565 0
	movw	$0, 16(%esi)
	movl	$1, %ebx
.LVL205:
.L87:
	.loc 5 568 0
	movl	%ebx, %eax
	addl	$16, %esp
	popl	%ebx
.LVL206:
	popl	%esi
.LVL207:
	popl	%edi
.LVL208:
	ret
	.cfi_endproc
.LFE613:
	.size	process_floppy_op.1221, .-process_floppy_op.1221
	.section	.text.handle_0e,"ax",@progbits
.globl handle_0e
	.type	handle_0e, @function
handle_0e:
.LFB614:
	.loc 5 578 0
	.cfi_startproc
	pushl	%ebx
.LCFI52:
	.cfi_def_cfa_offset 8
.LBB7344:
.LBB7345:
	.loc 2 93 0
	movl	$1012, %edx
#APP
# 93 "src/ioport.h" 1
	inb %dx, %al
# 0 "" 2
.LVL209:
#NO_APP
.LBE7345:
.LBE7344:
	.loc 5 583 0
	andl	$192, %eax
.LVL210:
	cmpl	$192, %eax
	je	.L103
	.cfi_offset 3, -8
.LBB7346:
.LBB7347:
	.loc 2 83 0
	movb	$-11, %dl
	movb	$8, %al
#APP
# 83 "src/ioport.h" 1
	outb %al, %dx
# 0 "" 2
#NO_APP
.LBE7347:
.LBE7346:
.LBB7348:
.LBB7349:
	.loc 2 93 0
	movb	$-12, %dl
.L104:
#APP
# 93 "src/ioport.h" 1
	inb %dx, %al
# 0 "" 2
.LVL211:
#NO_APP
.LBE7349:
.LBE7348:
	.loc 5 585 0
	andl	$192, %eax
.LVL212:
	cmpl	$192, %eax
	jne	.L104
.LBB7350:
.LBB7351:
	.loc 2 93 0
	movl	$1013, %ebx
.LBE7351:
.LBE7350:
.LBB7353:
.LBB7354:
	movl	$1012, %ecx
.L107:
.LBE7354:
.LBE7353:
.LBB7356:
.LBB7352:
	movl	%ebx, %edx
#APP
# 93 "src/ioport.h" 1
	inb %dx, %al
# 0 "" 2
.LVL213:
#NO_APP
.LBE7352:
.LBE7356:
.LBB7357:
.LBB7355:
	movl	%ecx, %edx
#APP
# 93 "src/ioport.h" 1
	inb %dx, %al
# 0 "" 2
.LVL214:
#NO_APP
.LBE7355:
.LBE7357:
	.loc 5 589 0
	andl	$192, %eax
.LVL215:
	cmpl	$192, %eax
	je	.L107
.L103:
.LBB7358:
	.loc 5 592 0
	movl	$64, %edx
#APP
# 592 "src/floppy.c" 1
	movw %dx, %ES
# 0 "" 2
#NO_APP
.LBB7359:
#APP
# 592 "src/floppy.c" 1
	movb %ES:62, %al
# 0 "" 2
.LVL216:
#NO_APP
.LBE7359:
.LBB7360:
	orl	$-128, %eax
.LVL217:
#APP
# 592 "src/floppy.c" 1
	movb %al, %ES:62
# 0 "" 2
#NO_APP
.LBE7360:
.LBE7358:
.LBB7361:
.LBB7362:
.LBB7363:
	.loc 2 83 0
	movb	$32, %al
.LVL218:
#APP
# 83 "src/ioport.h" 1
	outb %al, $32
# 0 "" 2
#NO_APP
.LBE7363:
.LBE7362:
.LBE7361:
	.loc 5 596 0
	popl	%ebx
	ret
	.cfi_endproc
.LFE614:
	.size	handle_0e, .-handle_0e
	.section	.text.udelay.1732,"ax",@progbits
	.type	udelay.1732, @function
udelay.1732:
.LFB1161:
	.file 7 "src/clock.c"
	.loc 7 113 0
	.cfi_startproc
.LVL219:
	pushl	%ebx
.LCFI53:
	.cfi_def_cfa_offset 8
	subl	$8, %esp
.LCFI54:
	.cfi_def_cfa_offset 16
	movl	%eax, %ecx
.LBB7364:
	.loc 7 114 0
#APP
# 114 "src/clock.c" 1
	movl %CS:cpu_khz, %ebx
# 0 "" 2
#NO_APP
.LBE7364:
.LBB7365:
.LBB7366:
.LBB7367:
.LBB7368:
	.file 8 "src/util.h"
	.loc 8 79 0
#APP
# 79 "src/util.h" 1
	rdtsc
# 0 "" 2
.LVL220:
#NO_APP
	movl	%eax, (%esp)
	movl	%edx, 4(%esp)
.LBE7368:
.LBE7367:
	.loc 7 96 0
	imull	%ecx, %ebx
	.cfi_offset 3, -8
	movl	$1000, %ecx
.LVL221:
	movl	%ebx, %eax
	xorl	%edx, %edx
	divl	%ecx
	movl	%eax, %ecx
	xorl	%ebx, %ebx
.LVL222:
	addl	(%esp), %ecx
.LVL223:
	adcl	4(%esp), %ebx
.LVL224:
	jmp	.L111
.L112:
.LBB7369:
.LBB7370:
	.loc 8 36 0
#APP
# 36 "src/util.h" 1
	rep ; nop
# 0 "" 2
#NO_APP
.L111:
.LBE7370:
.LBE7369:
.LBB7371:
.LBB7372:
.LBB7373:
	.loc 8 79 0
#APP
# 79 "src/util.h" 1
	rdtsc
# 0 "" 2
#NO_APP
.LBE7373:
.LBE7372:
.LBE7371:
	.loc 7 97 0
	subl	%ecx, %eax
	sbbl	%ebx, %edx
	cmpl	$0, %edx
	jl	.L112
	jg	.L114
	cmpl	$0, %eax
	jbe	.L112
.L114:
.LBE7366:
.LBE7365:
	.loc 7 115 0
	popl	%eax
.LCFI55:
	.cfi_def_cfa_offset 12
	popl	%edx
.LCFI56:
	.cfi_def_cfa_offset 8
	popl	%ebx
.LVL225:
	ret
	.cfi_endproc
.LFE1161:
	.size	udelay.1732, .-udelay.1732
	.section	.text.process_mouse.1711,"ax",@progbits
	.type	process_mouse.1711, @function
process_mouse.1711:
.LFB828:
	.file 9 "src/mouse.c"
	.loc 9 295 0
	.cfi_startproc
.LVL226:
	pushl	%edi
.LCFI57:
	.cfi_def_cfa_offset 8
	pushl	%esi
.LCFI58:
	.cfi_def_cfa_offset 12
	pushl	%ebx
.LCFI59:
	.cfi_def_cfa_offset 16
.LBB7374:
.LBB7375:
	.file 10 "src/biosvar.h"
	.loc 10 253 0
	movl	$64, %edx
#APP
# 253 "src/biosvar.h" 1
	movw %dx, %ES
# 0 "" 2
#NO_APP
.LBB7376:
#APP
# 253 "src/biosvar.h" 1
	movw %ES:14, %si
# 0 "" 2
.LVL227:
#NO_APP
.LBE7376:
.LBE7375:
.LBE7374:
	.loc 9 300 0
#APP
# 300 "src/mouse.c" 1
	movw %si, %ES
# 0 "" 2
#NO_APP
.LBB7377:
#APP
# 300 "src/mouse.c" 1
	movb %ES:38, %dl
# 0 "" 2
.LVL228:
#NO_APP
.LBE7377:
	.loc 9 301 0
#APP
# 301 "src/mouse.c" 1
	movw %si, %ES
# 0 "" 2
#NO_APP
.LBB7378:
#APP
# 301 "src/mouse.c" 1
	movb %ES:39, %cl
# 0 "" 2
.LVL229:
#NO_APP
.LBE7378:
	.loc 9 303 0
	testb	%cl, %cl
	jns	.L118
	.cfi_offset 3, -16
	.cfi_offset 6, -12
	.cfi_offset 7, -8
.LBB7379:
	.loc 9 309 0
#APP
# 309 "src/mouse.c" 1
	movw %si, %ES
# 0 "" 2
#NO_APP
	movl	%edx, %ebx
.LVL230:
	andl	$7, %ebx
#APP
# 309 "src/mouse.c" 1
	movb %al, %ES:40(%ebx)
# 0 "" 2
#NO_APP
.LBE7379:
	.loc 9 311 0
	incl	%ebx
	andl	$7, %ecx
.LVL231:
	cmpl	%ecx, %ebx
	jge	.L117
	.loc 9 312 0
	incl	%edx
.LVL232:
.LBB7380:
	.loc 9 313 0
#APP
# 313 "src/mouse.c" 1
	movw %si, %ES
# 0 "" 2
# 313 "src/mouse.c" 1
	movb %dl, %ES:38
# 0 "" 2
#NO_APP
	jmp	.L118
.LVL233:
.L117:
.LBE7380:
	.loc 9 317 0
#APP
# 317 "src/mouse.c" 1
	movw %si, %ES
# 0 "" 2
#NO_APP
.LBB7381:
#APP
# 317 "src/mouse.c" 1
	movb %ES:40, %cl
# 0 "" 2
.LVL234:
#NO_APP
.LBE7381:
	movzbl	%cl, %ecx
.LVL235:
	.loc 9 318 0
#APP
# 318 "src/mouse.c" 1
	movw %si, %ES
# 0 "" 2
#NO_APP
.LBB7382:
#APP
# 318 "src/mouse.c" 1
	movb %ES:41, %dl
# 0 "" 2
.LVL236:
#NO_APP
.LBE7382:
	movzbl	%dl, %edx
.LVL237:
	.loc 9 319 0
#APP
# 319 "src/mouse.c" 1
	movw %si, %ES
# 0 "" 2
#NO_APP
.LBB7383:
#APP
# 319 "src/mouse.c" 1
	movb %ES:42, %bl
# 0 "" 2
.LVL238:
#NO_APP
.LBE7383:
	movzbl	%bl, %ebx
.LVL239:
.LBB7384:
	.loc 9 320 0
#APP
# 320 "src/mouse.c" 1
	movw %si, %ES
# 0 "" 2
#NO_APP
	xorl	%eax, %eax
.LVL240:
#APP
# 320 "src/mouse.c" 1
	movb %al, %ES:38
# 0 "" 2
#NO_APP
.LBE7384:
	.loc 9 322 0
#APP
# 322 "src/mouse.c" 1
	movw %si, %ES
# 0 "" 2
#NO_APP
.LBB7385:
#APP
# 322 "src/mouse.c" 1
	movl %ES:34, %eax
# 0 "" 2
.LVL241:
#NO_APP
.LBE7385:
	.loc 9 326 0
#APP
# 326 "src/mouse.c" 1
	pushl %ebp
sti
pushl %eax
pushw %cx
pushw %dx
pushw %bx
pushw $0
lcallw *8(%esp)
addl $12, %esp
cli
cld
popl %ebp
# 0 "" 2
.LVL242:
#NO_APP
.L118:
	.loc 9 344 0
	popl	%ebx
.LVL243:
	popl	%esi
.LVL244:
	popl	%edi
	ret
	.cfi_endproc
.LFE828:
	.size	process_mouse.1711, .-process_mouse.1711
	.section	.text.dequeue_key.19941,"ax",@progbits
	.type	dequeue_key.19941, @function
dequeue_key.19941:
.LFB899:
	.file 11 "src/kbd.c"
	.loc 11 76 0
	.cfi_startproc
.LVL245:
	pushl	%ebp
.LCFI60:
	.cfi_def_cfa_offset 8
	pushl	%edi
.LCFI61:
	.cfi_def_cfa_offset 12
	pushl	%esi
.LCFI62:
	.cfi_def_cfa_offset 16
	pushl	%ebx
.LCFI63:
	.cfi_def_cfa_offset 20
	subl	$8, %esp
.LCFI64:
	.cfi_def_cfa_offset 28
.LBB7386:
.LBB7387:
.LBB7388:
.LBB7389:
	.loc 6 108 0
#APP
# 108 "src/stacks.c" 1
	sti
nop
rep ; nop
cli
cld

# 0 "" 2
#NO_APP
.LBE7389:
.LBE7388:
.LBE7387:
.LBE7386:
	.loc 11 81 0
	movl	$64, %edi
	.cfi_offset 3, -20
	.cfi_offset 6, -16
	.cfi_offset 7, -12
	.cfi_offset 5, -8
.LBB7390:
	xorl	%esi, %esi
.LVL246:
.L123:
.LBE7390:
#APP
# 81 "src/kbd.c" 1
	movw %di, %ES
# 0 "" 2
#NO_APP
.LBB7391:
#APP
# 81 "src/kbd.c" 1
	movw %ES:26(%esi), %bx
# 0 "" 2
#NO_APP
.LBE7391:
	.loc 11 82 0
#APP
# 82 "src/kbd.c" 1
	movw %di, %ES
# 0 "" 2
#NO_APP
.LBB7392:
#APP
# 82 "src/kbd.c" 1
	movw %ES:28(%esi), %bp
# 0 "" 2
#NO_APP
.LBE7392:
	.loc 11 84 0
	cmpw	%bp, %bx
	jne	.L120
	.loc 11 86 0
	testl	%edx, %edx
	jne	.L121
	.loc 11 87 0
	orw	$64, 36(%eax)
	.loc 11 88 0
	jmp	.L130
.L121:
.LBB7393:
.LBB7394:
	.loc 6 139 0
#APP
# 139 "src/stacks.c" 1
	sti ; hlt ; cli ; cld
# 0 "" 2
#NO_APP
.LBE7394:
.LBE7393:
	.loc 11 91 0
	jmp	.L123
.L120:
	movw	%bx, 2(%esp)
	.loc 11 93 0
	movl	$64, %ebx
.LVL247:
#APP
# 93 "src/kbd.c" 1
	movw %bx, %ES
# 0 "" 2
#NO_APP
.LBB7395:
	movzwl	2(%esp), %esi
#APP
# 93 "src/kbd.c" 1
	movb %ES:(%esi), %bl
# 0 "" 2
#NO_APP
	movb	%bl, 7(%esp)
.LBE7395:
	.loc 11 94 0
	movl	$64, %ebx
#APP
# 94 "src/kbd.c" 1
	movw %bx, %ES
# 0 "" 2
#NO_APP
.LBB7396:
#APP
# 94 "src/kbd.c" 1
	movb %ES:1(%esi), %bl
# 0 "" 2
#NO_APP
	movl	%ebx, %esi
.LVL248:
.LBE7396:
	.loc 11 95 0
	testb	%bl, %bl
	je	.L131
	cmpb	$-16, 7(%esp)
	je	.L124
.L131:
	cmpb	$-32, 7(%esp)
	jne	.L132
	testl	%ecx, %ecx
	je	.L124
.L132:
	movb	7(%esp), %cl
.LVL249:
	jmp	.L127
.LVL250:
.L124:
	xorl	%ecx, %ecx
.LVL251:
.L127:
	.loc 11 98 0
	movzbl	%cl, %edi
.LVL252:
	movl	%esi, %ecx
.LVL253:
	sall	$8, %ecx
	orl	%edi, %ecx
	movw	%cx, 28(%eax)
	.loc 11 100 0
	testl	%edx, %edx
	jne	.L128
	.loc 11 101 0
	andw	$-65, 36(%eax)
	.loc 11 102 0
	jmp	.L130
.L128:
	.loc 11 104 0
	movl	$64, %eax
.LVL254:
#APP
# 104 "src/kbd.c" 1
	movw %ax, %ES
# 0 "" 2
#NO_APP
.LBB7397:
#APP
# 104 "src/kbd.c" 1
	movw %ES:128, %dx
# 0 "" 2
.LVL255:
#NO_APP
.LBE7397:
	.loc 11 105 0
#APP
# 105 "src/kbd.c" 1
	movw %ax, %ES
# 0 "" 2
#NO_APP
.LBB7398:
#APP
# 105 "src/kbd.c" 1
	movw %ES:130, %ax
# 0 "" 2
.LVL256:
#NO_APP
.LBE7398:
	.loc 11 107 0
	movw	2(%esp), %bx
.LVL257:
	addl	$2, %ebx
.LVL258:
	.loc 11 108 0
	cmpw	%ax, %bx
	jb	.L129
	movl	%edx, %ebx
.LVL259:
.L129:
.LBB7399:
	.loc 11 110 0
	movl	$64, %eax
.LVL260:
#APP
# 110 "src/kbd.c" 1
	movw %ax, %ES
# 0 "" 2
# 110 "src/kbd.c" 1
	movw %bx, %ES:26
# 0 "" 2
.LVL261:
#NO_APP
.L130:
.LBE7399:
	.loc 11 111 0
	popl	%ecx
.LCFI65:
	.cfi_def_cfa_offset 24
.LVL262:
	popl	%ebx
.LCFI66:
	.cfi_def_cfa_offset 20
.LVL263:
	popl	%ebx
	popl	%esi
	popl	%edi
.LVL264:
	popl	%ebp
.LVL265:
	ret
	.cfi_endproc
.LFE899:
	.size	dequeue_key.19941, .-dequeue_key.19941
	.section	.text.pci_next.14700,"ax",@progbits
	.type	pci_next.14700, @function
pci_next.14700:
.LFB986:
	.file 12 "src/pci.c"
	.loc 12 62 0
	.cfi_startproc
.LVL266:
	pushl	%ebp
.LCFI67:
	.cfi_def_cfa_offset 8
	pushl	%edi
.LCFI68:
	.cfi_def_cfa_offset 12
	pushl	%esi
.LCFI69:
	.cfi_def_cfa_offset 16
	pushl	%ebx
.LCFI70:
	.cfi_def_cfa_offset 20
	subl	$4, %esp
.LCFI71:
	.cfi_def_cfa_offset 24
	movl	%eax, %ecx
	movl	%edx, %esi
	.cfi_offset 3, -20
	.cfi_offset 6, -16
	.cfi_offset 7, -12
	.cfi_offset 5, -8
	.loc 12 63 0
	movb	%al, %dl
.LVL267:
	andl	$7, %edx
	decb	%dl
	jne	.L134
.LBB7400:
.LBB7401:
.LBB7402:
	.loc 2 89 0
	decl	%eax
	movzwl	%ax, %eax
	sall	$8, %eax
	orl	$-2147483636, %eax
	movl	$3320, %edx
#APP
# 89 "src/ioport.h" 1
	outl %eax, %dx
# 0 "" 2
#NO_APP
.LBE7402:
.LBE7401:
.LBB7403:
.LBB7404:
	.loc 2 93 0
	movb	$-2, %dl
#APP
# 93 "src/ioport.h" 1
	inb %dx, %al
# 0 "" 2
.LVL268:
#NO_APP
.LBE7404:
.LBE7403:
.LBE7400:
	.loc 12 63 0
	testb	%al, %al
	js	.L134
	.loc 12 67 0
	addl	$7, %ecx
.L134:
	.loc 12 69 0
	movl	(%esi), %eax
.LVL269:
	movl	%eax, (%esp)
.LBB7405:
.LBB7406:
.LBB7407:
.LBB7408:
.LBB7409:
	.loc 2 89 0
	movl	$3320, %ebp
.L141:
.LBE7409:
.LBE7408:
.LBE7407:
.LBE7406:
	.loc 12 71 0
	cmpl	(%esp), %ecx
	jl	.L135
	orl	$-1, %ecx
	jmp	.L136
.L135:
.LBB7415:
.LBB7414:
	.loc 12 41 0
	movzwl	%cx, %ebx
.LVL270:
	sall	$8, %ebx
.LBB7411:
.LBB7410:
	.loc 2 89 0
	movl	%ebx, %eax
	orl	$-2147483648, %eax
	movl	%ebp, %edx
#APP
# 89 "src/ioport.h" 1
	outl %eax, %dx
# 0 "" 2
#NO_APP
.LBE7410:
.LBE7411:
.LBB7412:
.LBB7413:
	.loc 2 98 0
	movl	$3324, %edx
#APP
# 98 "src/ioport.h" 1
	inw %dx, %ax
# 0 "" 2
.LVL271:
#NO_APP
.LBE7413:
.LBE7412:
.LBE7414:
.LBE7415:
	.loc 12 82 0
	decl	%eax
.LVL272:
	cmpw	$-3, %ax
	jbe	.L137
	.loc 12 86 0
	testb	$7, %cl
	jne	.L138
	.loc 12 87 0
	addl	$8, %ecx
.LVL273:
	jmp	.L141
.LVL274:
.L138:
	.loc 12 89 0
	incl	%ecx
.LVL275:
	jmp	.L141
.LVL276:
.L137:
.LBE7405:
.LBB7416:
.LBB7417:
.LBB7418:
	.loc 2 89 0
	movl	%ebx, %eax
	orl	$-2147483636, %eax
	movl	$3320, %edx
#APP
# 89 "src/ioport.h" 1
	outl %eax, %dx
# 0 "" 2
#NO_APP
.LBE7418:
.LBE7417:
.LBB7419:
.LBB7420:
	.loc 2 93 0
	movb	$-2, %dl
#APP
# 93 "src/ioport.h" 1
	inb %dx, %al
# 0 "" 2
.LVL277:
#NO_APP
.LBE7420:
.LBE7419:
.LBE7416:
	.loc 12 95 0
	andl	$127, %eax
.LVL278:
	decl	%eax
	cmpl	$1, %eax
	ja	.L136
.LBB7421:
.LBB7422:
.LBB7423:
.LBB7424:
	.loc 2 89 0
	movl	%ebx, %eax
	orl	$-2147483624, %eax
	movb	$-8, %dl
#APP
# 89 "src/ioport.h" 1
	outl %eax, %dx
# 0 "" 2
#NO_APP
.LBE7424:
.LBE7423:
.LBB7425:
.LBB7426:
	.loc 2 103 0
	movb	$-4, %dl
#APP
# 103 "src/ioport.h" 1
	inl %dx, %eax
# 0 "" 2
#NO_APP
.LBE7426:
.LBE7425:
.LBE7422:
	.loc 12 97 0
	andl	$65280, %eax
	addl	$256, %eax
.LVL279:
	.loc 12 98 0
	cmpl	(%esp), %eax
	jle	.L136
	.loc 12 99 0
	movl	%eax, (%esi)
.LVL280:
.L136:
.LBE7421:
	.loc 12 103 0
	movl	%ecx, %eax
.LVL281:
	popl	%esi
.LCFI72:
	.cfi_def_cfa_offset 20
.LVL282:
	popl	%ebx
	popl	%esi
	popl	%edi
	popl	%ebp
	ret
	.cfi_endproc
.LFE986:
	.size	pci_next.14700, .-pci_next.14700
	.section	.text.handle_14,"ax",@progbits
.globl handle_14
	.type	handle_14, @function
handle_14:
.LFB1069:
	.file 13 "src/serial.c"
	.loc 13 162 0
	.cfi_startproc
.LVL283:
	pushl	%ebp
.LCFI73:
	.cfi_def_cfa_offset 8
	pushl	%edi
.LCFI74:
	.cfi_def_cfa_offset 12
	pushl	%esi
.LCFI75:
	.cfi_def_cfa_offset 16
	pushl	%ebx
.LCFI76:
	.cfi_def_cfa_offset 20
	subl	$4, %esp
.LCFI77:
	.cfi_def_cfa_offset 24
	movl	%eax, %ebx
	.cfi_offset 3, -20
	.cfi_offset 6, -16
	.cfi_offset 7, -12
	.cfi_offset 5, -8
	.loc 13 169 0
	movb	29(%eax), %al
.LVL284:
	cmpb	$1, %al
	je	.L145
	jb	.L144
	cmpb	$2, %al
	je	.L146
	cmpb	$3, %al
	jne	.L169
	jmp	.L178
.L144:
.LBB7427:
.LBB7428:
.LBB7444:
.LBB7445:
	.loc 13 56 0
	movw	20(%ebx), %ax
	cmpw	$3, %ax
	ja	.L169
	.loc 13 60 0
	movl	$64, %edx
#APP
# 60 "src/serial.c" 1
	movw %dx, %ES
# 0 "" 2
#NO_APP
.LBB7446:
	movzwl	%ax, %eax
#APP
# 60 "src/serial.c" 1
	movw %ES:(%eax,%eax), %si
# 0 "" 2
.LVL285:
#NO_APP
.LBE7446:
	.loc 13 61 0
	testw	%si, %si
	jne	.L150
	jmp	.L169
.L166:
.LBE7445:
.LBE7444:
.LBB7442:
.LBB7443:
	.loc 2 83 0
	movb	$23, %al
	movl	%esi, %edx
#APP
# 83 "src/ioport.h" 1
	outb %al, %dx
# 0 "" 2
#NO_APP
.LBE7443:
.LBE7442:
.LBB7440:
.LBB7441:
	leal	1(%esi), %edx
	movb	$4, %al
	jmp	.L171
.L179:
.LBE7441:
.LBE7440:
.LBB7435:
	.loc 13 78 0
	movb	%al, %cl
	shrb	$5, %cl
	movl	$1536, %eax
	sarl	%cl, %eax
.LVL286:
.LBB7436:
.LBB7437:
	.loc 2 83 0
	movl	%esi, %edx
#APP
# 83 "src/ioport.h" 1
	outb %al, %dx
# 0 "" 2
#NO_APP
.LBE7437:
.LBE7436:
.LBB7438:
.LBB7439:
	shrw	$8, %ax
.LVL287:
	leal	1(%esi), %edx
.L171:
#APP
# 83 "src/ioport.h" 1
	outb %al, %dx
# 0 "" 2
#NO_APP
.LBE7439:
.LBE7438:
.LBE7435:
.LBB7433:
.LBB7434:
	movl	%ebp, %eax
	andl	$31, %eax
	movl	%edi, %edx
#APP
# 83 "src/ioport.h" 1
	outb %al, %dx
# 0 "" 2
#NO_APP
.LBE7434:
.LBE7433:
.LBB7431:
.LBB7432:
	.loc 2 93 0
	leal	5(%esi), %edx
#APP
# 93 "src/ioport.h" 1
	inb %dx, %al
# 0 "" 2
.LVL288:
#NO_APP
.LBE7432:
.LBE7431:
	.loc 13 83 0
	movb	%al, 29(%ebx)
.LBB7429:
.LBB7430:
	.loc 2 93 0
	leal	6(%esi), %edx
	jmp	.L175
.LVL289:
.L145:
.LBE7430:
.LBE7429:
.LBE7428:
.LBE7427:
.LBB7452:
.LBB7453:
.LBB7468:
.LBB7469:
	.loc 13 56 0
	movw	20(%ebx), %dx
	cmpw	$3, %dx
	ja	.L169
	.loc 13 60 0
	movl	$64, %edi
#APP
# 60 "src/serial.c" 1
	movw %di, %ES
# 0 "" 2
#NO_APP
.LBB7470:
	movzwl	%dx, %edx
#APP
# 60 "src/serial.c" 1
	movw %ES:(%edx,%edx), %cx
# 0 "" 2
.LVL290:
#NO_APP
.LBE7470:
	.loc 13 61 0
	testw	%cx, %cx
	jne	.L153
	jmp	.L169
.L157:
.LBE7469:
.LBE7468:
.LBB7454:
.LBB7464:
.LBB7465:
	.loc 2 93 0
	movl	%edi, %edx
#APP
# 93 "src/ioport.h" 1
	inb %dx, %al
# 0 "" 2
#NO_APP
	movl	%eax, %esi
.LVL291:
.LBE7465:
.LBE7464:
	.loc 13 98 0
	movl	%esi, %eax
.LVL292:
	andl	$96, %eax
	cmpl	$96, %eax
	jne	.L154
.LBB7462:
.LBB7463:
	.loc 2 83 0
	movb	28(%ebx), %al
	movl	%ecx, %edx
#APP
# 83 "src/ioport.h" 1
	outb %al, %dx
# 0 "" 2
#NO_APP
.LBE7463:
.LBE7462:
	.loc 13 102 0
	movl	%esi, %eax
.LVL293:
	jmp	.L172
.LVL294:
.L154:
.LBB7459:
.LBB7460:
	.loc 7 249 0
	movl	$64, %edx
#APP
# 249 "src/clock.c" 1
	movw %dx, %ES
# 0 "" 2
#NO_APP
.LBB7461:
#APP
# 249 "src/clock.c" 1
	movl %ES:108, %eax
# 0 "" 2
.LVL295:
#NO_APP
.LBE7461:
.LBE7460:
.LBE7459:
	.loc 13 105 0
	addl	(%esp), %eax
.LVL296:
	xorl	%edx, %edx
	divl	%ebp
	cmpl	$786519, %edx
	ja	.L156
	.loc 13 107 0
	movl	%esi, %eax
.LVL297:
	orl	$-128, %eax
.L172:
	movb	%al, 29(%ebx)
	jmp	.L174
.LVL298:
.L156:
.LBB7455:
.LBB7456:
.LBB7457:
.LBB7458:
	.loc 6 108 0
#APP
# 108 "src/stacks.c" 1
	sti
nop
rep ; nop
cli
cld

# 0 "" 2
#NO_APP
	jmp	.L157
.LVL299:
.L146:
.LBE7458:
.LBE7457:
.LBE7456:
.LBE7455:
.LBE7454:
.LBE7453:
.LBE7452:
.LBB7477:
.LBB7478:
.LBB7493:
.LBB7494:
	.loc 13 56 0
	movw	20(%ebx), %dx
	cmpw	$3, %dx
	ja	.L169
	.loc 13 60 0
	movl	$64, %eax
#APP
# 60 "src/serial.c" 1
	movw %ax, %ES
# 0 "" 2
#NO_APP
.LBB7495:
	movzwl	%dx, %edx
#APP
# 60 "src/serial.c" 1
	movw %ES:(%edx,%edx), %si
# 0 "" 2
.LVL300:
#NO_APP
.LBE7495:
	.loc 13 61 0
	testw	%si, %si
	jne	.L159
	jmp	.L169
.L163:
.LBE7494:
.LBE7493:
.LBB7479:
.LBB7489:
.LBB7490:
	.loc 2 93 0
	movl	%edi, %edx
#APP
# 93 "src/ioport.h" 1
	inb %dx, %al
# 0 "" 2
#NO_APP
	movb	%al, %cl
.LVL301:
.LBE7490:
.LBE7489:
	.loc 13 125 0
	movl	%ecx, %eax
.LVL302:
	andl	$1, %eax
	je	.L160
.LBB7487:
.LBB7488:
	.loc 2 93 0
	movl	%esi, %edx
#APP
# 93 "src/ioport.h" 1
	inb %dx, %al
# 0 "" 2
.LVL303:
#NO_APP
.LBE7488:
.LBE7487:
	.loc 13 127 0
	movb	%al, 28(%ebx)
	jmp	.L173
.LVL304:
.L160:
.LBB7484:
.LBB7485:
	.loc 7 249 0
	movl	$64, %edx
#APP
# 249 "src/clock.c" 1
	movw %dx, %ES
# 0 "" 2
#NO_APP
.LBB7486:
#APP
# 249 "src/clock.c" 1
	movl %ES:108(%eax), %eax
# 0 "" 2
.LVL305:
#NO_APP
.LBE7486:
.LBE7485:
.LBE7484:
	.loc 13 131 0
	addl	(%esp), %eax
.LVL306:
	xorl	%edx, %edx
	divl	%ebp
	cmpl	$786519, %edx
	ja	.L162
	.loc 13 133 0
	orl	$-128, %ecx
.LVL307:
.L173:
	movb	%cl, 29(%ebx)
	jmp	.L174
.LVL308:
.L162:
.LBB7480:
.LBB7481:
.LBB7482:
.LBB7483:
	.loc 6 108 0
#APP
# 108 "src/stacks.c" 1
	sti
nop
rep ; nop
cli
cld

# 0 "" 2
#NO_APP
	jmp	.L163
.LVL309:
.L178:
.LBE7483:
.LBE7482:
.LBE7481:
.LBE7480:
.LBE7479:
.LBE7478:
.LBE7477:
.LBB7502:
.LBB7503:
.LBB7504:
.LBB7505:
	.loc 13 56 0
	movw	20(%ebx), %ax
	cmpw	$3, %ax
	ja	.L169
	.loc 13 60 0
	movl	$64, %edx
#APP
# 60 "src/serial.c" 1
	movw %dx, %ES
# 0 "" 2
#NO_APP
.LBB7506:
	movzwl	%ax, %eax
#APP
# 60 "src/serial.c" 1
	movw %ES:(%eax,%eax), %cx
# 0 "" 2
.LVL310:
#NO_APP
.LBE7506:
	.loc 13 61 0
	testw	%cx, %cx
	jne	.L165
.LVL311:
.L169:
.LBE7505:
.LBE7504:
.LBE7503:
.LBE7502:
.LBB7515:
.LBB7516:
.LBB7517:
.LBB7518:
.LBB7519:
.LBB7520:
	.file 14 "src/bregs.h"
	.loc 14 60 0
	orw	$1, 36(%ebx)
	jmp	.L168
.LVL312:
.L150:
.LBE7520:
.LBE7519:
.LBE7518:
.LBE7517:
.LBE7516:
.LBE7515:
.LBB7521:
.LBB7451:
	.loc 13 73 0
	leal	3(%esi), %edi
.LBB7447:
.LBB7448:
	.loc 2 93 0
	movl	%edi, %edx
#APP
# 93 "src/ioport.h" 1
	inb %dx, %al
# 0 "" 2
#NO_APP
.LBE7448:
.LBE7447:
.LBB7449:
.LBB7450:
	.loc 2 83 0
	orl	$-128, %eax
#APP
# 83 "src/ioport.h" 1
	outb %al, %dx
# 0 "" 2
#NO_APP
.LBE7450:
.LBE7449:
	.loc 13 74 0
	movb	28(%ebx), %al
	movzbl	%al, %ebp
	movl	%ebp, %edx
	andb	$-32, %dl
	je	.L166
	jmp	.L179
.LVL313:
.L153:
.LBE7451:
.LBE7521:
.LBB7522:
.LBB7476:
	.loc 13 95 0
#APP
# 95 "src/serial.c" 1
	movw %di, %ES
# 0 "" 2
#NO_APP
.LBB7471:
#APP
# 95 "src/serial.c" 1
	movb %ES:124(%edx), %al
# 0 "" 2
#NO_APP
	movl	%eax, %esi
.LVL314:
.LBE7471:
.LBB7472:
.LBB7473:
	.loc 7 231 0
#APP
# 231 "src/clock.c" 1
	movw %di, %ES
# 0 "" 2
#NO_APP
.LBB7474:
#APP
# 231 "src/clock.c" 1
	movl %ES:108, %edx
# 0 "" 2
.LVL315:
#NO_APP
.LBE7474:
	andl	$255, %esi
.LVL316:
	leal	1(%edx,%esi), %eax
	movl	$1573040, %esi
.LVL317:
	xorl	%edx, %edx
.LVL318:
	divl	%esi
.LBE7473:
.LBE7472:
.LBB7475:
.LBB7467:
.LBB7466:
	.loc 2 93 0
	leal	5(%ecx), %edi
.LBE7466:
.LBE7467:
	.loc 13 105 0
	movl	$1573040, %ebp
	movl	%ebp, %eax
	subl	%edx, %eax
	movl	%eax, (%esp)
	jmp	.L157
.LVL319:
.L159:
.LBE7475:
.LBE7476:
.LBE7522:
.LBB7523:
.LBB7501:
	.loc 13 122 0
#APP
# 122 "src/serial.c" 1
	movw %ax, %ES
# 0 "" 2
#NO_APP
.LBB7496:
#APP
# 122 "src/serial.c" 1
	movb %ES:124(%edx), %cl
# 0 "" 2
.LVL320:
#NO_APP
.LBE7496:
.LBB7497:
.LBB7498:
	.loc 7 231 0
#APP
# 231 "src/clock.c" 1
	movw %ax, %ES
# 0 "" 2
#NO_APP
.LBB7499:
#APP
# 231 "src/clock.c" 1
	movl %ES:108, %edx
# 0 "" 2
.LVL321:
#NO_APP
.LBE7499:
	movzbl	%cl, %eax
.LVL322:
	leal	1(%edx,%eax), %eax
.LVL323:
	movl	$1573040, %ecx
	xorl	%edx, %edx
.LVL324:
	divl	%ecx
.LBE7498:
.LBE7497:
.LBB7500:
.LBB7492:
.LBB7491:
	.loc 2 93 0
	leal	5(%esi), %edi
.LBE7491:
.LBE7492:
	.loc 13 131 0
	movl	$1573040, %ebp
	movl	%ebp, %eax
	subl	%edx, %eax
	movl	%eax, (%esp)
	jmp	.L163
.LVL325:
.L165:
.LBE7500:
.LBE7501:
.LBE7523:
.LBB7524:
.LBB7514:
.LBB7507:
.LBB7508:
	.loc 2 93 0
	leal	5(%ecx), %edx
#APP
# 93 "src/ioport.h" 1
	inb %dx, %al
# 0 "" 2
.LVL326:
#NO_APP
.LBE7508:
.LBE7507:
	.loc 13 148 0
	movb	%al, 29(%ebx)
.LBB7509:
.LBB7510:
	.loc 2 93 0
	leal	6(%ecx), %edx
.LVL327:
.L175:
#APP
# 93 "src/ioport.h" 1
	inb %dx, %al
# 0 "" 2
.LVL328:
#NO_APP
.LBE7510:
.LBE7509:
	.loc 13 149 0
	movb	%al, 28(%ebx)
.LVL329:
.L174:
.LBB7511:
.LBB7512:
.LBB7513:
	.loc 14 62 0
	andw	$-2, 36(%ebx)
.L168:
.LBE7513:
.LBE7512:
.LBE7511:
.LBE7514:
.LBE7524:
	.loc 13 176 0
	popl	%edi
.LCFI78:
	.cfi_def_cfa_offset 20
	popl	%ebx
.LVL330:
	popl	%esi
.LVL331:
	popl	%edi
	popl	%ebp
	ret
	.cfi_endproc
.LFE1069:
	.size	handle_14, .-handle_14
	.section	.text.handle_17,"ax",@progbits
.globl handle_17
	.type	handle_17, @function
handle_17:
.LFB1077:
	.loc 13 302 0
	.cfi_startproc
.LVL332:
	pushl	%ebp
.LCFI79:
	.cfi_def_cfa_offset 8
	pushl	%edi
.LCFI80:
	.cfi_def_cfa_offset 12
	pushl	%esi
.LCFI81:
	.cfi_def_cfa_offset 16
	pushl	%ebx
.LCFI82:
	.cfi_def_cfa_offset 20
	subl	$8, %esp
.LCFI83:
	.cfi_def_cfa_offset 28
	movl	%eax, %ebx
	.cfi_offset 3, -20
	.cfi_offset 6, -16
	.cfi_offset 7, -12
	.cfi_offset 5, -8
	.loc 13 309 0
	movb	29(%eax), %al
.LVL333:
	cmpb	$1, %al
	je	.L183
	jb	.L182
	cmpb	$2, %al
	jne	.L197
	jmp	.L204
.L182:
.LBB7525:
.LBB7526:
.LBB7541:
.LBB7542:
	.loc 13 221 0
	movw	20(%ebx), %dx
	cmpw	$2, %dx
	ja	.L197
	.loc 13 225 0
	movl	$64, %eax
#APP
# 225 "src/serial.c" 1
	movw %ax, %ES
# 0 "" 2
#NO_APP
.LBB7543:
	movzwl	%dx, %edx
#APP
# 225 "src/serial.c" 1
	movw %ES:8(%edx,%edx), %di
# 0 "" 2
.LVL334:
#NO_APP
.LBE7543:
	.loc 13 226 0
	testw	%di, %di
	jne	.L187
	jmp	.L197
.LVL335:
.L191:
.LBE7542:
.LBE7541:
.LBB7527:
.LBB7536:
.LBB7537:
	.loc 2 93 0
	movl	%edi, %edx
#APP
# 93 "src/ioport.h" 1
	inb %dx, %al
# 0 "" 2
#NO_APP
	movl	%eax, %esi
.LBE7537:
.LBE7536:
	.loc 13 249 0
	testb	$64, %al
	je	.L202
.LVL336:
.LBB7532:
.LBB7533:
	.loc 7 249 0
#APP
# 249 "src/clock.c" 1
	movw %bp, %ES
# 0 "" 2
#NO_APP
.LBB7534:
#APP
# 249 "src/clock.c" 1
	movl %ES:108, %eax
# 0 "" 2
.LVL337:
#NO_APP
.LBE7534:
.LBE7533:
.LBE7532:
	.loc 13 254 0
	addl	4(%esp), %eax
.LVL338:
	xorl	%edx, %edx
	divl	%ecx
	cmpl	$786519, %edx
	ja	.L190
	.loc 13 256 0
	movl	%esi, %eax
	xorl	$72, %eax
	orl	$1, %eax
	jmp	.L201
.L190:
.LBB7528:
.LBB7529:
.LBB7530:
.LBB7531:
	.loc 6 108 0
#APP
# 108 "src/stacks.c" 1
	sti
nop
rep ; nop
cli
cld

# 0 "" 2
#NO_APP
	jmp	.L191
.LVL339:
.L183:
.LBE7531:
.LBE7530:
.LBE7529:
.LBE7528:
.LBE7527:
.LBE7526:
.LBE7525:
.LBB7558:
.LBB7559:
.LBB7560:
.LBB7561:
	.loc 13 221 0
	movw	20(%ebx), %ax
	cmpw	$2, %ax
	ja	.L197
	.loc 13 225 0
	movl	$64, %edx
#APP
# 225 "src/serial.c" 1
	movw %dx, %ES
# 0 "" 2
#NO_APP
.LBB7562:
	movzwl	%ax, %eax
#APP
# 225 "src/serial.c" 1
	movw %ES:8(%eax,%eax), %si
# 0 "" 2
.LVL340:
#NO_APP
.LBE7562:
	.loc 13 226 0
	testw	%si, %si
	jne	.L193
	jmp	.L197
.LVL341:
.L204:
.LBE7561:
.LBE7560:
.LBE7559:
.LBE7558:
.LBB7572:
.LBB7573:
.LBB7578:
.LBB7579:
	.loc 13 221 0
	movw	20(%ebx), %ax
	cmpw	$2, %ax
	ja	.L197
	.loc 13 225 0
	movl	$64, %edx
#APP
# 225 "src/serial.c" 1
	movw %dx, %ES
# 0 "" 2
#NO_APP
.LBB7580:
	movzwl	%ax, %eax
#APP
# 225 "src/serial.c" 1
	movw %ES:8(%eax,%eax), %ax
# 0 "" 2
.LVL342:
#NO_APP
.LBE7580:
.LBE7579:
.LBE7578:
.LBB7575:
.LBB7576:
	.loc 2 93 0
	leal	1(%eax), %edx
.LBE7576:
.LBE7575:
.LBB7574:
.LBB7581:
	.loc 13 226 0
	testw	%ax, %ax
	jne	.L199
.LVL343:
.L197:
.LBE7581:
.LBE7574:
.LBE7573:
.LBE7572:
.LBB7587:
.LBB7588:
.LBB7589:
.LBB7590:
.LBB7591:
.LBB7592:
	.loc 14 60 0
	orw	$1, 36(%ebx)
	jmp	.L196
.LVL344:
.L187:
.LBE7592:
.LBE7591:
.LBE7590:
.LBE7589:
.LBE7588:
.LBE7587:
.LBB7593:
.LBB7557:
	.loc 13 239 0
#APP
# 239 "src/serial.c" 1
	movw %ax, %ES
# 0 "" 2
#NO_APP
.LBB7544:
#APP
# 239 "src/serial.c" 1
	movb %ES:120(%edx), %cl
# 0 "" 2
.LVL345:
#NO_APP
.LBE7544:
.LBB7545:
.LBB7546:
	.loc 7 231 0
#APP
# 231 "src/clock.c" 1
	movw %ax, %ES
# 0 "" 2
#NO_APP
.LBB7547:
#APP
# 231 "src/clock.c" 1
	movl %ES:108, %edx
# 0 "" 2
.LVL346:
#NO_APP
.LBE7547:
	movzbl	%cl, %eax
.LVL347:
	leal	1(%edx,%eax), %eax
.LVL348:
	movl	$1573040, %ecx
	xorl	%edx, %edx
.LVL349:
	divl	%ecx
	movl	%edx, 4(%esp)
.LBE7546:
.LBE7545:
.LBB7548:
.LBB7549:
	.loc 2 83 0
	movb	28(%ebx), %al
	movl	%edi, %edx
#APP
# 83 "src/ioport.h" 1
	outb %al, %dx
# 0 "" 2
#NO_APP
.LBE7549:
.LBE7548:
	.loc 13 242 0
	leal	2(%edi), %edx
.LBB7550:
.LBB7551:
	.loc 2 93 0
#APP
# 93 "src/ioport.h" 1
	inb %dx, %al
# 0 "" 2
#NO_APP
	movl	%eax, %esi
.LVL350:
.LBE7551:
.LBE7550:
.LBB7552:
.LBB7553:
	.loc 2 83 0
	orl	$1, %eax
#APP
# 83 "src/ioport.h" 1
	outb %al, %dx
# 0 "" 2
#NO_APP
.LBE7553:
.LBE7552:
	.loc 13 244 0
	movl	$5, %eax
	movl	%edx, (%esp)
	call	udelay.1732
.LBB7554:
.LBB7555:
	.loc 2 83 0
	movl	%esi, %eax
.LVL351:
	andl	$254, %eax
	movl	(%esp), %edx
#APP
# 83 "src/ioport.h" 1
	outb %al, %dx
# 0 "" 2
#NO_APP
.LBE7555:
.LBE7554:
.LBB7556:
.LBB7539:
.LBB7538:
	.loc 2 93 0
	incl	%edi
.LVL352:
.LBE7538:
.LBE7539:
.LBB7540:
.LBB7535:
	.loc 7 249 0
	movl	$64, %ebp
.LBE7535:
.LBE7540:
	.loc 13 254 0
	movl	$1573040, %ecx
	movl	%ecx, %edx
	subl	4(%esp), %edx
	movl	%edx, 4(%esp)
	jmp	.L191
.LVL353:
.L193:
.LBE7556:
.LBE7557:
.LBE7593:
.LBB7594:
.LBB7571:
	.loc 13 273 0
	leal	2(%esi), %edx
.LBB7563:
.LBB7564:
	.loc 2 93 0
#APP
# 93 "src/ioport.h" 1
	inb %dx, %al
# 0 "" 2
#NO_APP
	movl	%eax, %edi
.LVL354:
.LBE7564:
.LBE7563:
.LBB7565:
.LBB7566:
	.loc 2 83 0
	movl	%edi, %eax
.LVL355:
	andl	$251, %eax
#APP
# 83 "src/ioport.h" 1
	outb %al, %dx
# 0 "" 2
#NO_APP
.LBE7566:
.LBE7565:
	.loc 13 275 0
	movl	$5, %eax
	movl	%edx, (%esp)
	call	udelay.1732
.LBB7567:
.LBB7568:
	.loc 2 83 0
	movl	%edi, %eax
.LVL356:
	orl	$4, %eax
	movl	(%esp), %edx
#APP
# 83 "src/ioport.h" 1
	outb %al, %dx
# 0 "" 2
#NO_APP
.LBE7568:
.LBE7567:
.LBB7569:
.LBB7570:
	.loc 2 93 0
	leal	1(%esi), %edx
.LVL357:
.L199:
.LBE7570:
.LBE7569:
.LBE7571:
.LBE7594:
.LBB7595:
.LBB7586:
.LBB7582:
.LBB7577:
#APP
# 93 "src/ioport.h" 1
	inb %dx, %al
# 0 "" 2
.LVL358:
#NO_APP
.L202:
.LBE7577:
.LBE7582:
	.loc 13 289 0
	xorl	$72, %eax
.LVL359:
.L201:
	movb	%al, 29(%ebx)
.LBB7583:
.LBB7584:
.LBB7585:
	.loc 14 62 0
	andw	$-2, 36(%ebx)
.LVL360:
.L196:
.LBE7585:
.LBE7584:
.LBE7583:
.LBE7586:
.LBE7595:
	.loc 13 315 0
	popl	%ebp
.LCFI84:
	.cfi_def_cfa_offset 24
	popl	%eax
.LCFI85:
	.cfi_def_cfa_offset 20
.LVL361:
	popl	%ebx
.LVL362:
	popl	%esi
.LVL363:
	popl	%edi
.LVL364:
	popl	%ebp
	ret
	.cfi_endproc
.LFE1077:
	.size	handle_17, .-handle_17
	.section	.text.rtc_updating.25343,"ax",@progbits
	.type	rtc_updating.25343, @function
rtc_updating.25343:
.LFB1168:
	.loc 7 151 0
	.cfi_startproc
	pushl	%ebx
.LCFI86:
	.cfi_def_cfa_offset 8
	subl	$16, %esp
.LCFI87:
	.cfi_def_cfa_offset 24
.LBB7596:
.LBB7597:
.LBB7598:
	.loc 2 83 0
	movb	$-118, %al
#APP
# 83 "src/ioport.h" 1
	outb %al, $112
# 0 "" 2
#NO_APP
.LBE7598:
.LBE7597:
.LBB7599:
.LBB7600:
	.loc 2 93 0
#APP
# 93 "src/ioport.h" 1
	inb $113, %al
# 0 "" 2
.LVL365:
#NO_APP
.LBE7600:
.LBE7599:
.LBE7596:
	.loc 7 160 0
	testb	%al, %al
	jns	.L206
	.cfi_offset 3, -8
.LBB7601:
.LBB7602:
.LBB7603:
	.loc 7 134 0
#APP
# 134 "src/clock.c" 1
	movl %CS:cpu_khz, %ecx
# 0 "" 2
.LVL366:
#NO_APP
.LBE7603:
.LBB7604:
.LBB7605:
	.loc 8 79 0
#APP
# 79 "src/util.h" 1
	rdtsc
# 0 "" 2
.LVL367:
#NO_APP
	movl	%eax, 8(%esp)
	movl	%edx, 12(%esp)
.LBE7605:
.LBE7604:
	.loc 7 135 0
	movl	$15, %ebx
	movl	%ecx, %eax
	mull	%ebx
	movl	%eax, (%esp)
	movl	%edx, 4(%esp)
	movl	8(%esp), %eax
	movl	12(%esp), %edx
	addl	%eax, (%esp)
	adcl	%edx, 4(%esp)
.LBE7602:
.LBE7601:
.LBB7606:
.LBB7607:
.LBB7608:
	.loc 2 83 0
	movb	$-118, %bl
.L210:
	movb	%bl, %al
#APP
# 83 "src/ioport.h" 1
	outb %al, $112
# 0 "" 2
#NO_APP
.LBE7608:
.LBE7607:
.LBB7609:
.LBB7610:
	.loc 2 93 0
#APP
# 93 "src/ioport.h" 1
	inb $113, %al
# 0 "" 2
.LVL368:
#NO_APP
.LBE7610:
.LBE7609:
.LBE7606:
	.loc 7 164 0
	testb	%al, %al
	jns	.L206
.LBB7611:
.LBB7612:
.LBB7613:
	.loc 8 79 0
#APP
# 79 "src/util.h" 1
	rdtsc
# 0 "" 2
.LVL369:
#NO_APP
	movl	%eax, 8(%esp)
	movl	%edx, 12(%esp)
.LBE7613:
.LBE7612:
.LBE7611:
	.loc 7 166 0
	movl	(%esp), %eax
	movl	4(%esp), %edx
	subl	%eax, 8(%esp)
	sbbl	%edx, 12(%esp)
	cmpl	$0, 12(%esp)
	jl	.L207
	jg	.L212
	cmpl	$0, 8(%esp)
	jbe	.L207
.L212:
	orl	$-1, %eax
	jmp	.L209
.L207:
.LBB7614:
.LBB7615:
.LBB7616:
.LBB7617:
	.loc 6 108 0
#APP
# 108 "src/stacks.c" 1
	sti
nop
rep ; nop
cli
cld

# 0 "" 2
#NO_APP
.LBE7617:
.LBE7616:
.LBE7615:
.LBE7614:
	.loc 7 170 0
	jmp	.L210
.LVL370:
.L206:
	xorl	%eax, %eax
.LVL371:
.L209:
	.loc 7 171 0
	addl	$16, %esp
	popl	%ebx
	ret
	.cfi_endproc
.LFE1168:
	.size	rtc_updating.25343, .-rtc_updating.25343
	.section	.text.handle_70,"ax",@progbits
.globl handle_70
	.type	handle_70, @function
handle_70:
.LFB1196:
	.loc 7 607 0
	.cfi_startproc
	pushl	%ebp
.LCFI88:
	.cfi_def_cfa_offset 8
	pushl	%edi
.LCFI89:
	.cfi_def_cfa_offset 12
	pushl	%esi
.LCFI90:
	.cfi_def_cfa_offset 16
	pushl	%ebx
.LCFI91:
	.cfi_def_cfa_offset 20
.LBB7618:
.LBB7619:
.LBB7620:
	.loc 2 83 0
	movb	$-117, %al
#APP
# 83 "src/ioport.h" 1
	outb %al, $112
# 0 "" 2
#NO_APP
.LBE7620:
.LBE7619:
.LBB7621:
.LBB7622:
	.loc 2 93 0
#APP
# 93 "src/ioport.h" 1
	inb $113, %al
# 0 "" 2
#NO_APP
	movb	%al, %dl
.LVL372:
.LBE7622:
.LBE7621:
.LBE7618:
.LBB7623:
.LBB7624:
.LBB7625:
	.loc 2 83 0
	movb	$-116, %al
#APP
# 83 "src/ioport.h" 1
	outb %al, $112
# 0 "" 2
#NO_APP
.LBE7625:
.LBE7624:
.LBB7626:
.LBB7627:
	.loc 2 93 0
#APP
# 93 "src/ioport.h" 1
	inb $113, %al
# 0 "" 2
.LVL373:
#NO_APP
.LBE7627:
.LBE7626:
.LBE7623:
	.loc 7 614 0
	andb	$96, %dl
.LVL374:
	je	.L214
	.cfi_offset 3, -20
	.cfi_offset 6, -16
	.cfi_offset 7, -12
	.cfi_offset 5, -8
	.loc 7 616 0
	movzbl	%al, %ebp
	testl	$32, %ebp
	je	.L215
.LBB7628:
	.loc 7 619 0
	xorl	%eax, %eax
.LVL375:
#APP
# 619 "src/clock.c" 1
	pushl %ebp
sti
stc
int $74
pushfl
popl %ecx
cli
cld
popl %ebp
# 0 "" 2
.LVL376:
#NO_APP
.L215:
.LBE7628:
	.loc 7 621 0
	andl	$64, %ebp
	je	.L214
	.loc 7 628 0
	movl	$64, %eax
.LVL377:
#APP
# 628 "src/clock.c" 1
	movw %ax, %ES
# 0 "" 2
#NO_APP
.LBB7629:
#APP
# 628 "src/clock.c" 1
	movb %ES:160, %dl
# 0 "" 2
.LVL378:
#NO_APP
.LBE7629:
	testb	%dl, %dl
	je	.L214
	.loc 7 632 0
#APP
# 632 "src/clock.c" 1
	movw %ax, %ES
# 0 "" 2
#NO_APP
.LBB7630:
#APP
# 632 "src/clock.c" 1
	movl %ES:156, %edx
# 0 "" 2
.LVL379:
#NO_APP
.LBE7630:
	.loc 7 633 0
	cmpl	$976, %edx
	ja	.L216
.LBB7631:
	.loc 7 635 0
#APP
# 635 "src/clock.c" 1
	movw %ax, %ES
# 0 "" 2
#NO_APP
.LBB7632:
#APP
# 635 "src/clock.c" 1
	movl %ES:152, %ecx
# 0 "" 2
.LVL380:
#NO_APP
.LBE7632:
	.loc 7 636 0
	movl	%ecx, %ebp
	shrl	$16, %ebp
	.loc 7 637 0
	movzwl	%cx, %ecx
.LVL381:
	.loc 7 638 0
#APP
# 638 "src/clock.c" 1
	movw %bp, %ES
# 0 "" 2
.LVL382:
#NO_APP
.LBB7633:
#APP
# 638 "src/clock.c" 1
	movb %ES:(%ecx), %dl
# 0 "" 2
.LVL383:
#NO_APP
.LBE7633:
.LBB7634:
	.loc 7 639 0
#APP
# 639 "src/clock.c" 1
	movw %bp, %ES
# 0 "" 2
#NO_APP
	orl	$-128, %edx
#APP
# 639 "src/clock.c" 1
	movb %dl, %ES:(%ecx)
# 0 "" 2
#NO_APP
.LBE7634:
.LBB7635:
.LBB7636:
	.loc 7 539 0
#APP
# 539 "src/clock.c" 1
	movw %ax, %ES
# 0 "" 2
#NO_APP
.LBB7637:
#APP
# 539 "src/clock.c" 1
	movb %ES:160, %dl
# 0 "" 2
.LVL384:
#NO_APP
.LBE7637:
	andb	$1, %dl
	je	.L214
.LBB7638:
	.loc 7 542 0
#APP
# 542 "src/clock.c" 1
	movw %ax, %ES
# 0 "" 2
#NO_APP
	xorl	%edx, %edx
.LVL385:
#APP
# 542 "src/clock.c" 1
	movb %dl, %ES:160
# 0 "" 2
#NO_APP
.LBE7638:
.LBB7639:
.LBB7640:
.LBB7641:
.LBB7642:
	.loc 10 253 0
#APP
# 253 "src/biosvar.h" 1
	movw %ax, %ES
# 0 "" 2
#NO_APP
.LBB7643:
#APP
# 253 "src/biosvar.h" 1
	movw %ES:14, %dx
# 0 "" 2
.LVL386:
#NO_APP
.LBE7643:
.LBE7642:
.LBE7641:
	.loc 7 513 0
#APP
# 513 "src/clock.c" 1
	movw %dx, %ES
# 0 "" 2
#NO_APP
.LBB7644:
#APP
# 513 "src/clock.c" 1
	movl %ES:298, %eax
# 0 "" 2
.LVL387:
#NO_APP
.LBE7644:
.LBB7645:
	.loc 7 514 0
	leal	-1(%eax), %ecx
.LVL388:
#APP
# 514 "src/clock.c" 1
	movw %dx, %ES
# 0 "" 2
# 514 "src/clock.c" 1
	movl %ecx, %ES:298
# 0 "" 2
#NO_APP
.LBE7645:
	.loc 7 515 0
	decl	%eax
.LVL389:
	jne	.L214
.LBB7646:
.LBB7647:
.LBB7648:
	.loc 2 83 0
	movb	$-117, %dl
.LVL390:
	movb	%dl, %al
#APP
# 83 "src/ioport.h" 1
	outb %al, $112
# 0 "" 2
#NO_APP
.LBE7648:
.LBE7647:
.LBB7649:
.LBB7650:
	.loc 2 93 0
#APP
# 93 "src/ioport.h" 1
	inb $113, %al
# 0 "" 2
#NO_APP
	movb	%al, %cl
.LVL391:
.LBE7650:
.LBE7649:
.LBE7646:
.LBB7651:
.LBB7652:
.LBB7653:
	.loc 2 83 0
	movb	%dl, %al
#APP
# 83 "src/ioport.h" 1
	outb %al, $112
# 0 "" 2
#NO_APP
.LBE7653:
.LBE7652:
.LBB7654:
.LBB7655:
	movl	%ecx, %eax
.LVL392:
	andl	$191, %eax
#APP
# 83 "src/ioport.h" 1
	outb %al, $113
# 0 "" 2
#NO_APP
	jmp	.L214
.LVL393:
.L216:
.LBE7655:
.LBE7654:
.LBE7651:
.LBE7640:
.LBE7639:
.LBE7636:
.LBE7635:
.LBE7631:
	.loc 7 644 0
	subl	$977, %edx
.LVL394:
.LBB7656:
	.loc 7 645 0
#APP
# 645 "src/clock.c" 1
	movw %ax, %ES
# 0 "" 2
# 645 "src/clock.c" 1
	movl %edx, %ES:156
# 0 "" 2
.LVL395:
#NO_APP
.L214:
.LBE7656:
.LBB7657:
.LBB7658:
.LBB7659:
	.loc 2 83 0
	movb	$32, %al
.LVL396:
#APP
# 83 "src/ioport.h" 1
	outb %al, $160
# 0 "" 2
#NO_APP
.LBE7659:
.LBE7658:
.LBB7660:
.LBB7661:
.LBB7662:
#APP
# 83 "src/ioport.h" 1
	outb %al, $32
# 0 "" 2
#NO_APP
.LBE7662:
.LBE7661:
.LBE7660:
.LBE7657:
	.loc 7 650 0
	popl	%ebx
	popl	%esi
	popl	%edi
	popl	%ebp
.LVL397:
	ret
	.cfi_endproc
.LFE1196:
	.size	handle_70, .-handle_70
	.section	.text.handle_1ab1.1764,"ax",@progbits
	.type	handle_1ab1.1764, @function
handle_1ab1.1764:
.LFB1971:
	.file 15 "src/pcibios.c"
	.loc 15 177 0
	.cfi_startproc
.LVL398:
	pushl	%ebp
.LCFI92:
	.cfi_def_cfa_offset 8
	pushl	%edi
.LCFI93:
	.cfi_def_cfa_offset 12
	pushl	%esi
.LCFI94:
	.cfi_def_cfa_offset 16
	pushl	%ebx
.LCFI95:
	.cfi_def_cfa_offset 20
	subl	$4, %esp
.LCFI96:
	.cfi_def_cfa_offset 24
	movl	%eax, %ebx
	.cfi_offset 3, -20
	.cfi_offset 6, -16
	.cfi_offset 7, -12
	.cfi_offset 5, -8
	.loc 15 185 0
	movb	28(%eax), %al
.LVL399:
	cmpb	$9, %al
	je	.L224
	ja	.L230
	cmpb	$2, %al
	je	.L221
	ja	.L231
	decb	%al
	jne	.L219
	jmp	.L257
.L231:
	cmpb	$3, %al
	je	.L222
	cmpb	$8, %al
	jne	.L219
	jmp	.L258
.L230:
	cmpb	$12, %al
	je	.L227
	ja	.L232
	cmpb	$10, %al
	je	.L225
	cmpb	$11, %al
	jne	.L219
	jmp	.L259
.L232:
	cmpb	$13, %al
	je	.L228
	cmpb	$14, %al
	jne	.L219
	jmp	.L260
.L257:
.LBB7663:
.LBB7664:
	.loc 15 30 0
	movl	$256, (%esp)
.LVL400:
	movl	%esp, %edx
	xorl	%eax, %eax
	jmp	.L250
.LVL401:
.L234:
	incl	%eax
.LVL402:
	movl	%esp, %edx
.L250:
	call	pci_next.14700
	testl	%eax, %eax
.LVL403:
	jns	.L234
	.loc 15 33 0
	movb	$1, 28(%ebx)
	.loc 15 34 0
	movw	$528, 16(%ebx)
	.loc 15 35 0
	movl	(%esp), %eax
.LVL404:
	decl	%eax
	shrw	$8, %ax
	movb	%al, 24(%ebx)
	.loc 15 36 0
	movl	$541672272, 20(%ebx)
	.loc 15 37 0
	movl	$pcibios32_entry+983040, 4(%ebx)
	jmp	.L248
.LVL405:
.L221:
.LBE7664:
.LBE7663:
.LBB7665:
.LBB7666:
	.loc 15 45 0
	movzwl	24(%ebx), %esi
.LVL406:
	sall	$16, %esi
	movzwl	20(%ebx), %eax
	orl	%eax, %esi
	.loc 15 46 0
	movzwl	8(%ebx), %edi
.LVL407:
	.loc 15 48 0
	movl	$256, (%esp)
.LVL408:
	movl	%esp, %edx
	xorl	%eax, %eax
	jmp	.L251
.LVL409:
.L239:
.LBB7667:
.LBB7668:
.LBB7669:
.LBB7670:
	.loc 2 89 0
	movzwl	%cx, %eax
.LVL410:
	sall	$8, %eax
	orl	$-2147483648, %eax
	movl	$3320, %edx
#APP
# 89 "src/ioport.h" 1
	outl %eax, %dx
# 0 "" 2
#NO_APP
.LBE7670:
.LBE7669:
.LBB7671:
.LBB7672:
	.loc 2 103 0
	movb	$-4, %dl
#APP
# 103 "src/ioport.h" 1
	inl %dx, %eax
# 0 "" 2
.LVL411:
#NO_APP
.LBE7672:
.LBE7671:
.LBE7668:
	.loc 15 50 0
	cmpl	%esi, %eax
	jne	.L237
	.loc 15 52 0
	testl	%edi, %edi
	je	.L242
	decl	%edi
.L237:
.LBE7667:
	.loc 15 48 0
	leal	1(%ecx), %eax
.LVL412:
	movl	%esp, %edx
.L251:
	call	pci_next.14700
.LVL413:
	movl	%eax, %ecx
.LVL414:
	testl	%eax, %eax
	jns	.L239
.LVL415:
	jmp	.L249
.LVL416:
.L222:
.LBE7666:
.LBE7665:
.LBB7673:
.LBB7674:
	.loc 15 65 0
	movzwl	8(%ebx), %esi
.LVL417:
	.loc 15 66 0
	movl	24(%ebx), %ebp
.LVL418:
	.loc 15 68 0
	movl	$256, (%esp)
.LVL419:
	movl	%esp, %edx
	xorl	%eax, %eax
	jmp	.L252
.LVL420:
.L243:
.LBB7675:
.LBB7676:
.LBB7677:
.LBB7678:
	.loc 2 89 0
	movzwl	%cx, %eax
.LVL421:
	sall	$8, %eax
	orl	$-2147483640, %eax
	movl	$3320, %edx
#APP
# 89 "src/ioport.h" 1
	outl %eax, %dx
# 0 "" 2
#NO_APP
.LBE7678:
.LBE7677:
.LBB7679:
.LBB7680:
	.loc 2 103 0
	movb	$-4, %dl
#APP
# 103 "src/ioport.h" 1
	inl %dx, %eax
# 0 "" 2
#NO_APP
.LBE7680:
.LBE7679:
.LBE7676:
	.loc 15 70 0
	shrl	$8, %eax
	cmpl	%ebp, %eax
	jne	.L241
	.loc 15 72 0
	testl	%esi, %esi
	je	.L242
	decl	%esi
	jmp	.L241
.LVL422:
.L242:
	.loc 15 74 0
	movw	%cx, 16(%ebx)
	jmp	.L248
.LVL423:
.L241:
.LBE7675:
	.loc 15 68 0
	leal	1(%ecx), %eax
	movl	%esp, %edx
.L252:
	call	pci_next.14700
.LVL424:
	movl	%eax, %ecx
.LVL425:
	testl	%eax, %eax
	jns	.L243
.LVL426:
.L249:
.LBB7681:
.LBB7682:
.LBB7683:
.LBB7684:
	.loc 14 90 0
	movb	$-122, 29(%ebx)
	jmp	.L247
.LVL427:
.L258:
.LBE7684:
.LBE7683:
.LBE7682:
.LBE7681:
.LBE7674:
.LBE7673:
.LBB7685:
.LBB7686:
	.loc 15 85 0
	movw	4(%ebx), %cx
.LBB7687:
.LBB7688:
.LBB7689:
	.loc 2 89 0
	movl	%ecx, %eax
	andl	$252, %eax
	orl	$-2147483648, %eax
	movzwl	16(%ebx), %edx
	sall	$8, %edx
	orl	%edx, %eax
	movl	$3320, %edx
#APP
# 89 "src/ioport.h" 1
	outl %eax, %dx
# 0 "" 2
#NO_APP
.LBE7689:
.LBE7688:
.LBB7690:
.LBB7691:
	.loc 2 93 0
	andl	$3, %ecx
	leal	3324(%ecx), %edx
#APP
# 93 "src/ioport.h" 1
	inb %dx, %al
# 0 "" 2
.LVL428:
#NO_APP
.LBE7691:
.LBE7690:
.LBE7687:
	.loc 15 85 0
	movb	%al, 24(%ebx)
	jmp	.L248
.LVL429:
.L224:
.LBE7686:
.LBE7685:
.LBB7692:
.LBB7693:
	.loc 15 93 0
	movw	4(%ebx), %cx
.LBB7694:
.LBB7695:
.LBB7696:
	.loc 2 89 0
	movl	%ecx, %eax
	andl	$252, %eax
	orl	$-2147483648, %eax
	movzwl	16(%ebx), %edx
	sall	$8, %edx
	orl	%edx, %eax
	movl	$3320, %edx
#APP
# 89 "src/ioport.h" 1
	outl %eax, %dx
# 0 "" 2
#NO_APP
.LBE7696:
.LBE7695:
.LBB7697:
.LBB7698:
	.loc 2 98 0
	andl	$2, %ecx
	leal	3324(%ecx), %edx
#APP
# 98 "src/ioport.h" 1
	inw %dx, %ax
# 0 "" 2
.LVL430:
#NO_APP
.LBE7698:
.LBE7697:
.LBE7694:
	.loc 15 93 0
	movw	%ax, 24(%ebx)
	jmp	.L248
.LVL431:
.L225:
.LBE7693:
.LBE7692:
.LBB7699:
.LBB7700:
.LBB7701:
.LBB7702:
.LBB7703:
	.loc 2 89 0
	movzwl	4(%ebx), %eax
	andl	$252, %eax
	orl	$-2147483648, %eax
	movzwl	16(%ebx), %edx
	sall	$8, %edx
	orl	%edx, %eax
	movl	$3320, %edx
#APP
# 89 "src/ioport.h" 1
	outl %eax, %dx
# 0 "" 2
#NO_APP
.LBE7703:
.LBE7702:
.LBB7704:
.LBB7705:
	.loc 2 103 0
	movb	$-4, %dl
#APP
# 103 "src/ioport.h" 1
	inl %dx, %eax
# 0 "" 2
.LVL432:
#NO_APP
.LBE7705:
.LBE7704:
.LBE7701:
	.loc 15 101 0
	movl	%eax, 24(%ebx)
	jmp	.L248
.LVL433:
.L259:
.LBE7700:
.LBE7699:
.LBB7706:
.LBB7707:
	.loc 15 109 0
	movw	4(%ebx), %cx
.LBB7708:
.LBB7709:
.LBB7710:
	.loc 2 89 0
	movl	%ecx, %eax
	andl	$252, %eax
	orl	$-2147483648, %eax
	movzwl	16(%ebx), %edx
	sall	$8, %edx
	orl	%edx, %eax
	movl	$3320, %edx
#APP
# 89 "src/ioport.h" 1
	outl %eax, %dx
# 0 "" 2
#NO_APP
.LBE7710:
.LBE7709:
.LBB7711:
.LBB7712:
	.loc 2 83 0
	movb	24(%ebx), %al
	andl	$3, %ecx
	leal	3324(%ecx), %edx
#APP
# 83 "src/ioport.h" 1
	outb %al, %dx
# 0 "" 2
#NO_APP
	jmp	.L248
.L227:
.LBE7712:
.LBE7711:
.LBE7708:
.LBE7707:
.LBE7706:
.LBB7713:
.LBB7714:
	.loc 15 117 0
	movw	4(%ebx), %cx
.LBB7715:
.LBB7716:
.LBB7717:
	.loc 2 89 0
	movl	%ecx, %eax
	andl	$252, %eax
	orl	$-2147483648, %eax
	movzwl	16(%ebx), %edx
	sall	$8, %edx
	orl	%edx, %eax
	movl	$3320, %edx
#APP
# 89 "src/ioport.h" 1
	outl %eax, %dx
# 0 "" 2
#NO_APP
.LBE7717:
.LBE7716:
.LBB7718:
.LBB7719:
	.loc 2 86 0
	movw	24(%ebx), %ax
	andl	$2, %ecx
	leal	3324(%ecx), %edx
#APP
# 86 "src/ioport.h" 1
	outw %ax, %dx
# 0 "" 2
#NO_APP
	jmp	.L248
.L228:
.LBE7719:
.LBE7718:
.LBE7715:
.LBE7714:
.LBE7713:
.LBB7720:
.LBB7721:
.LBB7722:
.LBB7723:
	.loc 2 89 0
	movzwl	4(%ebx), %eax
	andl	$252, %eax
	orl	$-2147483648, %eax
	movzwl	16(%ebx), %edx
	sall	$8, %edx
	orl	%edx, %eax
	movl	$3320, %edx
#APP
# 89 "src/ioport.h" 1
	outl %eax, %dx
# 0 "" 2
#NO_APP
.LBE7723:
.LBE7722:
.LBB7724:
.LBB7725:
	movl	24(%ebx), %eax
	movb	$-4, %dl
#APP
# 89 "src/ioport.h" 1
	outl %eax, %dx
# 0 "" 2
#NO_APP
	jmp	.L248
.L260:
.LBE7725:
.LBE7724:
.LBE7721:
.LBE7720:
.LBB7726:
.LBB7727:
.LBB7728:
	.loc 15 133 0
#APP
# 133 "src/pcibios.c" 1
	movw %CS:PirOffset, %dx
# 0 "" 2
.LVL434:
#NO_APP
.LBE7728:
	movzwl	%dx, %edx
.LVL435:
	.loc 15 134 0
	testl	%edx, %edx
	je	.L219
	.loc 15 143 0
	movzwl	4(%ebx), %eax
.LVL436:
	.loc 15 146 0
	movw	2(%ebx), %si
#APP
# 146 "src/pcibios.c" 1
	movw %si, %ES
# 0 "" 2
#NO_APP
.LBB7729:
#APP
# 146 "src/pcibios.c" 1
	movw %ES:(%eax), %di
# 0 "" 2
.LVL437:
#NO_APP
.LBE7729:
.LBB7730:
	.loc 15 147 0
#APP
# 147 "src/pcibios.c" 1
	movw %CS:6(%edx), %cx
# 0 "" 2
.LVL438:
#NO_APP
.LBE7730:
	subl	$32, %ecx
.LVL439:
.LBB7731:
	.loc 15 148 0
#APP
# 148 "src/pcibios.c" 1
	movw %si, %ES
# 0 "" 2
# 148 "src/pcibios.c" 1
	movw %cx, %ES:(%eax)
# 0 "" 2
#NO_APP
.LBE7731:
	.loc 15 149 0
	cmpw	%cx, %di
	jae	.L245
.LBB7732:
.LBB7733:
.LBB7734:
.LBB7735:
	.loc 14 90 0
	movb	$-119, 29(%ebx)
	jmp	.L247
.L245:
.LBE7735:
.LBE7734:
.LBE7733:
.LBE7732:
	.loc 15 155 0
#APP
# 155 "src/pcibios.c" 1
	movw %si, %ES
# 0 "" 2
#NO_APP
.LBB7736:
#APP
# 155 "src/pcibios.c" 1
	movw %ES:2(%eax), %di
# 0 "" 2
.LVL440:
#NO_APP
.LBE7736:
	.loc 15 156 0
#APP
# 156 "src/pcibios.c" 1
	movw %si, %ES
# 0 "" 2
#NO_APP
.LBB7737:
#APP
# 156 "src/pcibios.c" 1
	movw %ES:4(%eax), %ax
# 0 "" 2
.LVL441:
#NO_APP
.LBE7737:
.LBB7738:
.LBB7739:
	.loc 10 300 0
#APP
# 300 "src/biosvar.h" 1
	movw %CS, %bp
# 0 "" 2
.LVL442:
#NO_APP
.LBE7739:
.LBE7738:
.LBB7740:
.LBB7741:
	.file 16 "src/util.c"
	.loc 16 156 0
#APP
# 156 "src/util.c" 1
	movw %ax, %ES
# 0 "" 2
	.loc 16 158 0
#NO_APP
	movzwl	%cx, %ecx
.LVL443:
	leal	32(%edx), %esi
	movzwl	%di, %edi
.LVL444:
#APP
# 158 "src/util.c" 1
	movw %ds, %ax
movw %bp, %ds
rep movsb (%si),%es:(%di)
movw %ax, %ds
# 0 "" 2
.LVL445:
#NO_APP
.LBE7741:
.LBE7740:
.LBB7742:
	.loc 15 165 0
#APP
# 165 "src/pcibios.c" 1
	movw %CS:10(%edx), %ax
# 0 "" 2
.LVL446:
#NO_APP
.LBE7742:
	movw	%ax, 16(%ebx)
.LVL447:
.L248:
.LBB7743:
.LBB7744:
	.loc 14 77 0
	movb	$0, 29(%ebx)
.LBB7745:
.LBB7746:
	.loc 14 62 0
	andw	$-2, 36(%ebx)
	jmp	.L246
.LVL448:
.L219:
.LBE7746:
.LBE7745:
.LBE7744:
.LBE7743:
.LBE7727:
.LBE7726:
.LBB7747:
.LBB7748:
.LBB7749:
.LBB7750:
.LBB7751:
.LBB7752:
	.loc 14 90 0
	movb	$-127, 29(%ebx)
.LVL449:
.L247:
.LBB7753:
.LBB7754:
	.loc 14 60 0
	orw	$1, 36(%ebx)
.LVL450:
.L246:
.LBE7754:
.LBE7753:
.LBE7752:
.LBE7751:
.LBE7750:
.LBE7749:
.LBE7748:
.LBE7747:
	.loc 15 198 0
	popl	%edx
.LCFI97:
	.cfi_def_cfa_offset 20
.LVL451:
	popl	%ebx
.LVL452:
	popl	%esi
.LVL453:
	popl	%edi
.LVL454:
	popl	%ebp
.LVL455:
	ret
	.cfi_endproc
.LFE1971:
	.size	handle_1ab1.1764, .-handle_1ab1.1764
	.section	.text.handle_1a,"ax",@progbits
.globl handle_1a
	.type	handle_1a, @function
handle_1a:
.LFB1185:
	.loc 7 447 0
	.cfi_startproc
.LVL456:
	pushl	%esi
.LCFI98:
	.cfi_def_cfa_offset 8
	pushl	%ebx
.LCFI99:
	.cfi_def_cfa_offset 12
	movl	%eax, %ebx
	.cfi_offset 3, -12
	.cfi_offset 6, -8
	.loc 7 449 0
	movb	29(%eax), %al
.LVL457:
	cmpb	$4, %al
	je	.L267
	ja	.L272
	cmpb	$1, %al
	je	.L264
	jb	.L263
	cmpb	$2, %al
	je	.L265
	cmpb	$3, %al
	jne	.L262
	jmp	.L287
.L272:
	cmpb	$6, %al
	je	.L269
	jb	.L268
	cmpb	$7, %al
	je	.L270
	cmpb	$-79, %al
	jne	.L262
	jmp	.L288
.L263:
.LBB7755:
.LBB7756:
.LBB7757:
.LBB7758:
.LBB7759:
.LBB7760:
	.loc 6 108 0
#APP
# 108 "src/stacks.c" 1
	sti
nop
rep ; nop
cli
cld

# 0 "" 2
#NO_APP
.LBE7760:
.LBE7759:
.LBE7758:
.LBE7757:
	.loc 7 258 0
	movl	$64, %eax
#APP
# 258 "src/clock.c" 1
	movw %ax, %ES
# 0 "" 2
#NO_APP
.LBB7761:
#APP
# 258 "src/clock.c" 1
	movl %ES:108, %edx
# 0 "" 2
.LVL458:
#NO_APP
.LBE7761:
	.loc 7 259 0
	movl	%edx, %ecx
	shrl	$16, %ecx
	movw	%cx, 24(%ebx)
	.loc 7 260 0
	movw	%dx, 20(%ebx)
	.loc 7 261 0
#APP
# 261 "src/clock.c" 1
	movw %ax, %ES
# 0 "" 2
#NO_APP
.LBB7762:
#APP
# 261 "src/clock.c" 1
	movb %ES:112, %dl
# 0 "" 2
.LVL459:
#NO_APP
.LBE7762:
	movb	%dl, 28(%ebx)
.LBB7763:
	.loc 7 262 0
#APP
# 262 "src/clock.c" 1
	movw %ax, %ES
# 0 "" 2
#NO_APP
	xorl	%eax, %eax
#APP
# 262 "src/clock.c" 1
	movb %al, %ES:112
# 0 "" 2
#NO_APP
	jmp	.L281
.LVL460:
.L264:
.LBE7763:
.LBE7756:
.LBE7755:
.LBB7764:
.LBB7765:
	.loc 7 270 0
	movzwl	24(%ebx), %eax
.LVL461:
	sall	$16, %eax
	movzwl	20(%ebx), %edx
	orl	%edx, %eax
.LBB7766:
	.loc 7 271 0
	movl	$64, %edx
#APP
# 271 "src/clock.c" 1
	movw %dx, %ES
# 0 "" 2
# 271 "src/clock.c" 1
	movl %eax, %ES:108
# 0 "" 2
#NO_APP
.LBE7766:
.LBB7767:
	.loc 7 272 0
#APP
# 272 "src/clock.c" 1
	movw %dx, %ES
# 0 "" 2
#NO_APP
	xorl	%eax, %eax
.LVL462:
#APP
# 272 "src/clock.c" 1
	movb %al, %ES:112
# 0 "" 2
#NO_APP
.LBE7767:
	.loc 7 274 0
	movb	$0, 29(%ebx)
	jmp	.L281
.L265:
.LBE7765:
.LBE7764:
.LBB7768:
.LBB7769:
	.loc 7 282 0
	call	rtc_updating.25343
	testl	%eax, %eax
	jne	.L262
.LBB7770:
.LBB7771:
.LBB7772:
	.loc 2 83 0
	movb	$-128, %al
#APP
# 83 "src/ioport.h" 1
	outb %al, $112
# 0 "" 2
#NO_APP
.LBE7772:
.LBE7771:
.LBB7773:
.LBB7774:
	.loc 2 93 0
#APP
# 93 "src/ioport.h" 1
	inb $113, %al
# 0 "" 2
.LVL463:
#NO_APP
.LBE7774:
.LBE7773:
.LBE7770:
	.loc 7 287 0
	movb	%al, 21(%ebx)
.LBB7775:
.LBB7776:
.LBB7777:
	.loc 2 83 0
	movb	$-126, %al
.LVL464:
#APP
# 83 "src/ioport.h" 1
	outb %al, $112
# 0 "" 2
#NO_APP
.LBE7777:
.LBE7776:
.LBB7778:
.LBB7779:
	.loc 2 93 0
#APP
# 93 "src/ioport.h" 1
	inb $113, %al
# 0 "" 2
.LVL465:
#NO_APP
.LBE7779:
.LBE7778:
.LBE7775:
	.loc 7 288 0
	movb	%al, 24(%ebx)
.LBB7780:
.LBB7781:
.LBB7782:
	.loc 2 83 0
	movb	$-124, %al
.LVL466:
#APP
# 83 "src/ioport.h" 1
	outb %al, $112
# 0 "" 2
#NO_APP
.LBE7782:
.LBE7781:
.LBB7783:
.LBB7784:
	.loc 2 93 0
#APP
# 93 "src/ioport.h" 1
	inb $113, %al
# 0 "" 2
#NO_APP
	movb	%al, %dl
.LVL467:
.LBE7784:
.LBE7783:
.LBE7780:
	.loc 7 289 0
	movb	%al, 25(%ebx)
.LBB7785:
.LBB7786:
.LBB7787:
	.loc 2 83 0
	movb	$-117, %al
#APP
# 83 "src/ioport.h" 1
	outb %al, $112
# 0 "" 2
#NO_APP
.LBE7787:
.LBE7786:
.LBB7788:
.LBB7789:
	.loc 2 93 0
#APP
# 93 "src/ioport.h" 1
	inb $113, %al
# 0 "" 2
#NO_APP
.LBE7789:
.LBE7788:
.LBE7785:
	.loc 7 290 0
	andl	$1, %eax
	movb	%al, 20(%ebx)
	jmp	.L283
.LVL468:
.L287:
.LBE7769:
.LBE7768:
.LBB7790:
.LBB7791:
	.loc 7 310 0
	call	rtc_updating.25343
	testl	%eax, %eax
	je	.L275
.LBB7792:
.LBB7793:
.LBB7794:
.LBB7795:
.LBB7796:
	.loc 2 83 0
	movb	$-118, %al
#APP
# 83 "src/ioport.h" 1
	outb %al, $112
# 0 "" 2
#NO_APP
.LBE7796:
.LBE7795:
.LBB7797:
.LBB7798:
	movb	$38, %al
#APP
# 83 "src/ioport.h" 1
	outb %al, $113
# 0 "" 2
#NO_APP
.LBE7798:
.LBE7797:
.LBE7794:
.LBB7799:
.LBB7800:
.LBB7801:
	movb	$-117, %cl
	movb	%cl, %al
#APP
# 83 "src/ioport.h" 1
	outb %al, $112
# 0 "" 2
#NO_APP
.LBE7801:
.LBE7800:
.LBB7802:
.LBB7803:
	.loc 2 93 0
#APP
# 93 "src/ioport.h" 1
	inb $113, %al
# 0 "" 2
#NO_APP
	movb	%al, %dl
.LBE7803:
.LBE7802:
.LBE7799:
.LBB7804:
.LBB7805:
.LBB7806:
	.loc 2 83 0
	movb	%cl, %al
#APP
# 83 "src/ioport.h" 1
	outb %al, $112
# 0 "" 2
#NO_APP
.LBE7806:
.LBE7805:
.LBB7807:
.LBB7808:
	andl	$1, %edx
	orl	$2, %edx
	movb	%dl, %al
#APP
# 83 "src/ioport.h" 1
	outb %al, $113
# 0 "" 2
#NO_APP
.LBE7808:
.LBE7807:
.LBE7804:
.LBB7809:
.LBB7810:
.LBB7811:
	movb	$-116, %al
#APP
# 83 "src/ioport.h" 1
	outb %al, $112
# 0 "" 2
#NO_APP
.LBE7811:
.LBE7810:
.LBB7812:
.LBB7813:
	.loc 2 93 0
#APP
# 93 "src/ioport.h" 1
	inb $113, %al
# 0 "" 2
.LVL469:
#NO_APP
.LBE7813:
.LBE7812:
.LBE7809:
.LBB7814:
.LBB7815:
.LBB7816:
	.loc 2 83 0
	movb	$-115, %al
.LVL470:
#APP
# 83 "src/ioport.h" 1
	outb %al, $112
# 0 "" 2
#NO_APP
.LBE7816:
.LBE7815:
.LBB7817:
.LBB7818:
	.loc 2 93 0
#APP
# 93 "src/ioport.h" 1
	inb $113, %al
# 0 "" 2
.LVL471:
#NO_APP
.L275:
.LBE7818:
.LBE7817:
.LBE7814:
.LBE7793:
.LBE7792:
.LBB7819:
.LBB7820:
.LBB7821:
	.loc 2 83 0
	movb	$-128, %al
.LVL472:
#APP
# 83 "src/ioport.h" 1
	outb %al, $112
# 0 "" 2
#NO_APP
.LBE7821:
.LBE7820:
.LBB7822:
.LBB7823:
	movb	21(%ebx), %al
#APP
# 83 "src/ioport.h" 1
	outb %al, $113
# 0 "" 2
#NO_APP
.LBE7823:
.LBE7822:
.LBE7819:
.LBB7824:
.LBB7825:
.LBB7826:
	movb	$-126, %al
#APP
# 83 "src/ioport.h" 1
	outb %al, $112
# 0 "" 2
#NO_APP
.LBE7826:
.LBE7825:
.LBB7827:
.LBB7828:
	movb	24(%ebx), %al
#APP
# 83 "src/ioport.h" 1
	outb %al, $113
# 0 "" 2
#NO_APP
.LBE7828:
.LBE7827:
.LBE7824:
.LBB7829:
.LBB7830:
.LBB7831:
	movb	$-124, %al
#APP
# 83 "src/ioport.h" 1
	outb %al, $112
# 0 "" 2
#NO_APP
.LBE7831:
.LBE7830:
.LBB7832:
.LBB7833:
	movb	25(%ebx), %al
#APP
# 83 "src/ioport.h" 1
	outb %al, $113
# 0 "" 2
#NO_APP
.LBE7833:
.LBE7832:
.LBE7829:
.LBB7834:
.LBB7835:
.LBB7836:
	movb	$-117, %cl
	movb	%cl, %al
#APP
# 83 "src/ioport.h" 1
	outb %al, $112
# 0 "" 2
#NO_APP
.LBE7836:
.LBE7835:
.LBB7837:
.LBB7838:
	.loc 2 93 0
#APP
# 93 "src/ioport.h" 1
	inb $113, %al
# 0 "" 2
#NO_APP
.LBE7838:
.LBE7837:
.LBE7834:
	.loc 7 319 0
	movb	20(%ebx), %dl
.LVL473:
	andl	$1, %edx
.LVL474:
	orl	$2, %edx
.LVL475:
	andl	$96, %eax
	orl	%eax, %edx
.LVL476:
	jmp	.L284
.LVL477:
.L267:
.LBE7791:
.LBE7790:
.LBB7839:
.LBB7840:
	.loc 7 330 0
	movb	$0, 29(%ebx)
	.loc 7 331 0
	call	rtc_updating.25343
	testl	%eax, %eax
	jne	.L262
.LBB7841:
.LBB7842:
.LBB7843:
	.loc 2 83 0
	movb	$-119, %al
#APP
# 83 "src/ioport.h" 1
	outb %al, $112
# 0 "" 2
#NO_APP
.LBE7843:
.LBE7842:
.LBB7844:
.LBB7845:
	.loc 2 93 0
#APP
# 93 "src/ioport.h" 1
	inb $113, %al
# 0 "" 2
.LVL478:
#NO_APP
.LBE7845:
.LBE7844:
.LBE7841:
	.loc 7 335 0
	movb	%al, 24(%ebx)
.LBB7846:
.LBB7847:
.LBB7848:
	.loc 2 83 0
	movb	$-120, %al
.LVL479:
#APP
# 83 "src/ioport.h" 1
	outb %al, $112
# 0 "" 2
#NO_APP
.LBE7848:
.LBE7847:
.LBB7849:
.LBB7850:
	.loc 2 93 0
#APP
# 93 "src/ioport.h" 1
	inb $113, %al
# 0 "" 2
.LVL480:
#NO_APP
.LBE7850:
.LBE7849:
.LBE7846:
	.loc 7 336 0
	movb	%al, 21(%ebx)
.LBB7851:
.LBB7852:
.LBB7853:
	.loc 2 83 0
	movb	$-121, %al
.LVL481:
#APP
# 83 "src/ioport.h" 1
	outb %al, $112
# 0 "" 2
#NO_APP
.LBE7853:
.LBE7852:
.LBB7854:
.LBB7855:
	.loc 2 93 0
#APP
# 93 "src/ioport.h" 1
	inb $113, %al
# 0 "" 2
.LVL482:
#NO_APP
.LBE7855:
.LBE7854:
.LBE7851:
	.loc 7 337 0
	movb	%al, 20(%ebx)
.LBB7856:
.LBB7857:
.LBB7858:
	.loc 2 83 0
	movb	$-78, %al
.LVL483:
#APP
# 83 "src/ioport.h" 1
	outb %al, $112
# 0 "" 2
#NO_APP
.LBE7858:
.LBE7857:
.LBB7859:
.LBB7860:
	.loc 2 93 0
#APP
# 93 "src/ioport.h" 1
	inb $113, %al
# 0 "" 2
.LVL484:
#NO_APP
.LBE7860:
.LBE7859:
.LBE7856:
	.loc 7 344 0
	movb	%al, 25(%ebx)
	.loc 7 346 0
	movb	%al, 28(%ebx)
	jmp	.L281
.LVL485:
.L268:
.LBE7840:
.LBE7839:
.LBB7861:
.LBB7862:
	.loc 7 364 0
	call	rtc_updating.25343
	testl	%eax, %eax
	je	.L277
.LBB7863:
.LBB7864:
.LBB7865:
.LBB7866:
.LBB7867:
	.loc 2 83 0
	movb	$-118, %al
#APP
# 83 "src/ioport.h" 1
	outb %al, $112
# 0 "" 2
#NO_APP
.LBE7867:
.LBE7866:
.LBB7868:
.LBB7869:
	movb	$38, %al
#APP
# 83 "src/ioport.h" 1
	outb %al, $113
# 0 "" 2
#NO_APP
.LBE7869:
.LBE7868:
.LBE7865:
.LBB7870:
.LBB7871:
.LBB7872:
	movb	$-117, %cl
	movb	%cl, %al
#APP
# 83 "src/ioport.h" 1
	outb %al, $112
# 0 "" 2
#NO_APP
.LBE7872:
.LBE7871:
.LBB7873:
.LBB7874:
	.loc 2 93 0
#APP
# 93 "src/ioport.h" 1
	inb $113, %al
# 0 "" 2
#NO_APP
	movb	%al, %dl
.LBE7874:
.LBE7873:
.LBE7870:
.LBB7875:
.LBB7876:
.LBB7877:
	.loc 2 83 0
	movb	%cl, %al
#APP
# 83 "src/ioport.h" 1
	outb %al, $112
# 0 "" 2
#NO_APP
.LBE7877:
.LBE7876:
.LBB7878:
.LBB7879:
	andl	$1, %edx
	orl	$2, %edx
	movb	%dl, %al
#APP
# 83 "src/ioport.h" 1
	outb %al, $113
# 0 "" 2
#NO_APP
.LBE7879:
.LBE7878:
.LBE7875:
.LBB7880:
.LBB7881:
.LBB7882:
	movb	$-116, %al
#APP
# 83 "src/ioport.h" 1
	outb %al, $112
# 0 "" 2
#NO_APP
.LBE7882:
.LBE7881:
.LBB7883:
.LBB7884:
	.loc 2 93 0
#APP
# 93 "src/ioport.h" 1
	inb $113, %al
# 0 "" 2
.LVL486:
#NO_APP
.LBE7884:
.LBE7883:
.LBE7880:
.LBB7885:
.LBB7886:
.LBB7887:
	.loc 2 83 0
	movb	$-115, %al
.LVL487:
#APP
# 83 "src/ioport.h" 1
	outb %al, $112
# 0 "" 2
#NO_APP
.LBE7887:
.LBE7886:
.LBB7888:
.LBB7889:
	.loc 2 93 0
#APP
# 93 "src/ioport.h" 1
	inb $113, %al
# 0 "" 2
.LVL488:
#NO_APP
	jmp	.L262
.LVL489:
.L277:
.LBE7889:
.LBE7888:
.LBE7885:
.LBE7864:
.LBE7863:
.LBB7890:
.LBB7891:
.LBB7892:
	.loc 2 83 0
	movb	$-119, %al
#APP
# 83 "src/ioport.h" 1
	outb %al, $112
# 0 "" 2
#NO_APP
.LBE7892:
.LBE7891:
.LBB7893:
.LBB7894:
	movb	24(%ebx), %al
#APP
# 83 "src/ioport.h" 1
	outb %al, $113
# 0 "" 2
#NO_APP
.LBE7894:
.LBE7893:
.LBE7890:
.LBB7895:
.LBB7896:
.LBB7897:
	movb	$-120, %al
#APP
# 83 "src/ioport.h" 1
	outb %al, $112
# 0 "" 2
#NO_APP
.LBE7897:
.LBE7896:
.LBB7898:
.LBB7899:
	movb	21(%ebx), %al
#APP
# 83 "src/ioport.h" 1
	outb %al, $113
# 0 "" 2
#NO_APP
.LBE7899:
.LBE7898:
.LBE7895:
.LBB7900:
.LBB7901:
.LBB7902:
	movb	$-121, %al
#APP
# 83 "src/ioport.h" 1
	outb %al, $112
# 0 "" 2
#NO_APP
.LBE7902:
.LBE7901:
.LBB7903:
.LBB7904:
	movb	20(%ebx), %al
#APP
# 83 "src/ioport.h" 1
	outb %al, $113
# 0 "" 2
#NO_APP
.LBE7904:
.LBE7903:
.LBE7900:
.LBB7905:
.LBB7906:
.LBB7907:
	movb	$-78, %al
#APP
# 83 "src/ioport.h" 1
	outb %al, $112
# 0 "" 2
#NO_APP
.LBE7907:
.LBE7906:
.LBB7908:
.LBB7909:
	movb	25(%ebx), %al
#APP
# 83 "src/ioport.h" 1
	outb %al, $113
# 0 "" 2
#NO_APP
.LBE7909:
.LBE7908:
.LBE7905:
.LBB7910:
.LBB7911:
.LBB7912:
	movb	$-117, %cl
	movb	%cl, %al
#APP
# 83 "src/ioport.h" 1
	outb %al, $112
# 0 "" 2
#NO_APP
.LBE7912:
.LBE7911:
.LBB7913:
.LBB7914:
	.loc 2 93 0
#APP
# 93 "src/ioport.h" 1
	inb $113, %al
# 0 "" 2
#NO_APP
	movb	%al, %dl
.LVL490:
.LBE7914:
.LBE7913:
.LBE7910:
	.loc 7 375 0
	andl	$127, %edx
.LVL491:
.L284:
.LBB7915:
.LBB7916:
.LBB7917:
	.loc 2 83 0
	movb	%cl, %al
#APP
# 83 "src/ioport.h" 1
	outb %al, $112
# 0 "" 2
#NO_APP
.LBE7917:
.LBE7916:
.LBB7918:
.LBB7919:
	movb	%dl, %al
	jmp	.L282
.LVL492:
.L269:
.LBE7919:
.LBE7918:
.LBE7915:
.LBE7862:
.LBE7861:
.LBB7920:
.LBB7921:
.LBB7922:
.LBB7923:
.LBB7924:
	movb	$-117, %al
#APP
# 83 "src/ioport.h" 1
	outb %al, $112
# 0 "" 2
#NO_APP
.LBE7924:
.LBE7923:
.LBB7925:
.LBB7926:
	.loc 2 93 0
#APP
# 93 "src/ioport.h" 1
	inb $113, %al
# 0 "" 2
#NO_APP
	movl	%eax, %esi
.LVL493:
.LBE7926:
.LBE7925:
.LBE7922:
	.loc 7 397 0
	movw	$0, 28(%ebx)
	.loc 7 398 0
	testb	$32, %al
	jne	.L262
.LVL494:
	.loc 7 403 0
	call	rtc_updating.25343
.LVL495:
	testl	%eax, %eax
	je	.L279
.LBB7927:
.LBB7928:
.LBB7929:
.LBB7930:
.LBB7931:
	.loc 2 83 0
	movb	$-118, %al
#APP
# 83 "src/ioport.h" 1
	outb %al, $112
# 0 "" 2
#NO_APP
.LBE7931:
.LBE7930:
.LBB7932:
.LBB7933:
	movb	$38, %al
#APP
# 83 "src/ioport.h" 1
	outb %al, $113
# 0 "" 2
#NO_APP
.LBE7933:
.LBE7932:
.LBE7929:
.LBB7934:
.LBB7935:
.LBB7936:
	movb	$-117, %cl
	movb	%cl, %al
#APP
# 83 "src/ioport.h" 1
	outb %al, $112
# 0 "" 2
#NO_APP
.LBE7936:
.LBE7935:
.LBB7937:
.LBB7938:
	.loc 2 93 0
#APP
# 93 "src/ioport.h" 1
	inb $113, %al
# 0 "" 2
#NO_APP
	movb	%al, %dl
.LBE7938:
.LBE7937:
.LBE7934:
.LBB7939:
.LBB7940:
.LBB7941:
	.loc 2 83 0
	movb	%cl, %al
#APP
# 83 "src/ioport.h" 1
	outb %al, $112
# 0 "" 2
#NO_APP
.LBE7941:
.LBE7940:
.LBB7942:
.LBB7943:
	andl	$1, %edx
	orl	$2, %edx
	movb	%dl, %al
#APP
# 83 "src/ioport.h" 1
	outb %al, $113
# 0 "" 2
#NO_APP
.LBE7943:
.LBE7942:
.LBE7939:
.LBB7944:
.LBB7945:
.LBB7946:
	movb	$-116, %al
#APP
# 83 "src/ioport.h" 1
	outb %al, $112
# 0 "" 2
#NO_APP
.LBE7946:
.LBE7945:
.LBB7947:
.LBB7948:
	.loc 2 93 0
#APP
# 93 "src/ioport.h" 1
	inb $113, %al
# 0 "" 2
.LVL496:
#NO_APP
.LBE7948:
.LBE7947:
.LBE7944:
.LBB7949:
.LBB7950:
.LBB7951:
	.loc 2 83 0
	movb	$-115, %al
.LVL497:
#APP
# 83 "src/ioport.h" 1
	outb %al, $112
# 0 "" 2
#NO_APP
.LBE7951:
.LBE7950:
.LBB7952:
.LBB7953:
	.loc 2 93 0
#APP
# 93 "src/ioport.h" 1
	inb $113, %al
# 0 "" 2
.LVL498:
#NO_APP
.L279:
.LBE7953:
.LBE7952:
.LBE7949:
.LBE7928:
.LBE7927:
.LBB7954:
.LBB7955:
.LBB7956:
	.loc 2 83 0
	movb	$-127, %al
.LVL499:
#APP
# 83 "src/ioport.h" 1
	outb %al, $112
# 0 "" 2
#NO_APP
.LBE7956:
.LBE7955:
.LBB7957:
.LBB7958:
	movb	21(%ebx), %al
#APP
# 83 "src/ioport.h" 1
	outb %al, $113
# 0 "" 2
#NO_APP
.LBE7958:
.LBE7957:
.LBE7954:
.LBB7959:
.LBB7960:
.LBB7961:
	movb	$-125, %al
#APP
# 83 "src/ioport.h" 1
	outb %al, $112
# 0 "" 2
#NO_APP
.LBE7961:
.LBE7960:
.LBB7962:
.LBB7963:
	movb	24(%ebx), %al
#APP
# 83 "src/ioport.h" 1
	outb %al, $113
# 0 "" 2
#NO_APP
.LBE7963:
.LBE7962:
.LBE7959:
.LBB7964:
.LBB7965:
.LBB7966:
	movb	$-123, %al
#APP
# 83 "src/ioport.h" 1
	outb %al, $112
# 0 "" 2
#NO_APP
.LBE7966:
.LBE7965:
.LBB7967:
.LBB7968:
	movb	25(%ebx), %al
#APP
# 83 "src/ioport.h" 1
	outb %al, $113
# 0 "" 2
#NO_APP
.LBE7968:
.LBE7967:
.LBE7964:
.LBB7969:
.LBB7970:
.LBB7971:
	movb	$-117, %al
#APP
# 83 "src/ioport.h" 1
	outb %al, $112
# 0 "" 2
#NO_APP
.LBE7971:
.LBE7970:
.LBB7972:
.LBB7973:
	movl	%esi, %eax
	andl	$95, %eax
	orl	$32, %eax
#APP
# 83 "src/ioport.h" 1
	outb %al, $113
# 0 "" 2
#NO_APP
	jmp	.L281
.LVL500:
.L270:
.LBE7973:
.LBE7972:
.LBE7969:
.LBE7921:
.LBE7920:
.LBB7974:
.LBB7975:
.LBB7976:
.LBB7977:
.LBB7978:
	movb	$-117, %cl
	movb	%cl, %al
#APP
# 83 "src/ioport.h" 1
	outb %al, $112
# 0 "" 2
#NO_APP
.LBE7978:
.LBE7977:
.LBB7979:
.LBB7980:
	.loc 2 93 0
#APP
# 93 "src/ioport.h" 1
	inb $113, %al
# 0 "" 2
#NO_APP
	movb	%al, %dl
.LVL501:
.LBE7980:
.LBE7979:
.LBE7976:
.LBB7981:
.LBB7982:
.LBB7983:
	.loc 2 83 0
	movb	%cl, %al
#APP
# 83 "src/ioport.h" 1
	outb %al, $112
# 0 "" 2
#NO_APP
.LBE7983:
.LBE7982:
.LBB7984:
.LBB7985:
	movl	%edx, %eax
.LVL502:
	andl	$95, %eax
.LVL503:
.L282:
#APP
# 83 "src/ioport.h" 1
	outb %al, $113
# 0 "" 2
.LVL504:
#NO_APP
.L283:
.LBE7985:
.LBE7984:
.LBE7981:
	.loc 7 432 0
	movb	$0, 29(%ebx)
	.loc 7 433 0
	movb	%dl, 28(%ebx)
.LVL505:
.L281:
.LBB7986:
.LBB7987:
.LBB7988:
	.loc 14 62 0
	andw	$-2, 36(%ebx)
.LBE7988:
.LBE7987:
.LBE7986:
.LBE7975:
.LBE7974:
	.loc 7 457 0
	jmp	.L280
.LVL506:
.L288:
	.loc 7 458 0
	movl	%ebx, %eax
	.loc 7 461 0
	popl	%ebx
.LVL507:
	popl	%esi
	.loc 7 458 0
	jmp	handle_1ab1.1764
.LVL508:
.L262:
.LBB7989:
.LBB7990:
.LBB7991:
.LBB7992:
.LBB7993:
.LBB7994:
	.loc 14 60 0
	orw	$1, 36(%ebx)
.LVL509:
.L280:
.LBE7994:
.LBE7993:
.LBE7992:
.LBE7991:
.LBE7990:
.LBE7989:
	.loc 7 461 0
	popl	%ebx
.LVL510:
	popl	%esi
.LVL511:
	ret
	.cfi_endproc
.LFE1185:
	.size	handle_1a, .-handle_1a
	.section	.text.handle_hwpic1,"ax",@progbits
.globl handle_hwpic1
	.type	handle_hwpic1, @function
handle_hwpic1:
.LFB1271:
	.file 17 "src/pic.c"
	.loc 17 42 0
	.cfi_startproc
.LVL512:
.LBB7995:
.LBB7996:
.LBB7997:
	.loc 2 83 0
	movb	$32, %al
.LVL513:
#APP
# 83 "src/ioport.h" 1
	outb %al, $32
# 0 "" 2
#NO_APP
.LBE7997:
.LBE7996:
.LBE7995:
	.loc 17 45 0
	ret
	.cfi_endproc
.LFE1271:
	.size	handle_hwpic1, .-handle_hwpic1
	.section	.text.handle_hwpic2,"ax",@progbits
.globl handle_hwpic2
	.type	handle_hwpic2, @function
handle_hwpic2:
.LFB1272:
	.loc 17 49 0
	.cfi_startproc
.LVL514:
.LBB7998:
.LBB7999:
.LBB8000:
	.loc 2 83 0
	movb	$32, %al
.LVL515:
#APP
# 83 "src/ioport.h" 1
	outb %al, $160
# 0 "" 2
#NO_APP
.LBE8000:
.LBE7999:
.LBB8001:
.LBB8002:
.LBB8003:
#APP
# 83 "src/ioport.h" 1
	outb %al, $32
# 0 "" 2
#NO_APP
.LBE8003:
.LBE8002:
.LBE8001:
.LBE7998:
	.loc 17 52 0
	ret
	.cfi_endproc
.LFE1272:
	.size	handle_hwpic2, .-handle_hwpic2
	.section	.text.usb_init_hub_port.43522,"ax",@progbits
	.type	usb_init_hub_port.43522, @function
usb_init_hub_port.43522:
.LFB2130:
	.file 18 "src/usb.c"
	.loc 18 359 0
	.cfi_startproc
.LVL516:
	pushl	%ebx
.LCFI100:
	.cfi_def_cfa_offset 8
	movl	%eax, %ebx
	.cfi_offset 3, -8
	.loc 18 364 0
	movl	(%eax), %ecx
	movl	20(%eax), %edx
	call	*(%ecx)
.LVL517:
	.loc 18 365 0
	testl	%eax, %eax
.LVL518:
	jne	.L294
.LBB8004:
.LBB8005:
	.loc 6 315 0
	call	__force_link_error__only_in_32bit_flat
.LVL519:
.L294:
.LBE8005:
.LBE8004:
	.loc 18 391 0
	decl	24(%ebx)
	.loc 18 397 0
	popl	%ebx
.LVL520:
	ret
	.cfi_endproc
.LFE2130:
	.size	usb_init_hub_port.43522, .-usb_init_hub_port.43522
	.section	.text.usb_poll_intr.42677,"ax",@progbits
	.type	usb_poll_intr.42677, @function
usb_poll_intr.42677:
.LFB2122:
	.loc 18 142 0
	.cfi_startproc
.LVL521:
	pushl	%ebp
.LCFI101:
	.cfi_def_cfa_offset 8
	pushl	%edi
.LCFI102:
	.cfi_def_cfa_offset 12
	pushl	%esi
.LCFI103:
	.cfi_def_cfa_offset 16
	pushl	%ebx
.LCFI104:
	.cfi_def_cfa_offset 20
	subl	$28, %esp
.LCFI105:
	.cfi_def_cfa_offset 48
	movl	%eax, %ecx
	movl	%edx, 24(%esp)
.LBB8080:
	.loc 18 143 0
	leal	4(%eax), %eax
.LVL522:
	movl	%eax, %edx
.LVL523:
	shrl	$4, %edx
#APP
# 143 "src/usb.c" 1
	movw %dx, %ES
# 0 "" 2
#NO_APP
.LBB8081:
	andl	$15, %eax
#APP
# 143 "src/usb.c" 1
	movb %ES:(%eax), %al
# 0 "" 2
.LVL524:
#NO_APP
.LBE8081:
.LBE8080:
	cmpb	$2, %al
	je	.L298
	.cfi_offset 3, -20
	.cfi_offset 6, -16
	.cfi_offset 7, -12
	.cfi_offset 5, -8
	cmpb	$3, %al
	je	.L299
.LBB8082:
.LBB8083:
.LBB8084:
	.file 19 "src/usb-uhci.c"
	.loc 19 581 0
	subl	$4, %ecx
.LVL525:
	movl	%ecx, %eax
.LVL526:
	shrl	$4, %eax
	movl	%eax, 8(%esp)
#APP
# 581 "src/usb-uhci.c" 1
	movw %ax, %ES
# 0 "" 2
#NO_APP
.LBB8085:
	andl	$15, %ecx
	movl	%ecx, (%esp)
#APP
# 581 "src/usb-uhci.c" 1
	movl %ES:(%ecx), %edx
# 0 "" 2
.LVL527:
#NO_APP
.LBE8085:
.LBE8084:
.LBB8086:
	.loc 19 582 0
	leal	4(%edx), %ebp
	movl	%ebp, %ecx
	shrl	$4, %ecx
	movl	%ecx, 12(%esp)
#APP
# 582 "src/usb-uhci.c" 1
	movw %cx, %ES
# 0 "" 2
#NO_APP
.LBB8087:
	andl	$15, %ebp
#APP
# 582 "src/usb-uhci.c" 1
	movl %ES:(%ebp), %ebx
# 0 "" 2
#NO_APP
	movl	%ebx, 16(%esp)
.LBE8087:
.LBE8086:
.LBB8088:
	.loc 19 583 0
	leal	8(%edx), %eax
	movl	%eax, %ecx
	shrl	$4, %ecx
#APP
# 583 "src/usb-uhci.c" 1
	movw %cx, %ES
# 0 "" 2
#NO_APP
.LBB8089:
	andl	$15, %eax
#APP
# 583 "src/usb-uhci.c" 1
	movl %ES:(%eax), %ecx
# 0 "" 2
.LVL528:
#NO_APP
.LBE8089:
.LBE8088:
	.loc 19 584 0
	andl	$8388608, %ebx
	jne	.L300
.LBB8090:
	.loc 19 590 0
	leal	12(%edx), %eax
	movl	%eax, %esi
	shrl	$4, %esi
#APP
# 590 "src/usb-uhci.c" 1
	movw %si, %ES
# 0 "" 2
#NO_APP
.LBB8091:
	andl	$15, %eax
#APP
# 590 "src/usb-uhci.c" 1
	movl %ES:(%eax), %esi
# 0 "" 2
.LVL529:
#NO_APP
.LBE8091:
.LBE8090:
.LBB8092:
	.loc 19 591 0
#APP
# 591 "src/usb-uhci.c" 1
	movw %SS, %ax
# 0 "" 2
.LVL530:
#NO_APP
.LBE8092:
.LBB8093:
.LBB8094:
	.loc 16 156 0
#APP
# 156 "src/util.c" 1
	movw %ax, %ES
# 0 "" 2
	.loc 16 158 0
#NO_APP
	movl	%esi, %eax
.LVL531:
	shrl	$4, %eax
	movl	%eax, 4(%esp)
	shrl	$21, %ecx
.LVL532:
	incl	%ecx
	andl	$2047, %ecx
	andl	$15, %esi
.LVL533:
	movl	24(%esp), %edi
.LVL534:
#APP
# 158 "src/util.c" 1
	movw %ds, %bx
movw %ax, %ds
rep movsb (%si),%es:(%di)
movw %bx, %ds
# 0 "" 2
.LVL535:
#NO_APP
.LBE8094:
.LBE8093:
.LBB8095:
	.loc 19 596 0
	movl	%edx, %eax
	shrl	$4, %eax
#APP
# 596 "src/usb-uhci.c" 1
	movw %ax, %ES
# 0 "" 2
#NO_APP
.LBB8096:
	andl	$15, %edx
.LVL536:
#APP
# 596 "src/usb-uhci.c" 1
	movl %ES:(%edx), %eax
# 0 "" 2
#NO_APP
.LBE8096:
.LBE8095:
.LBB8097:
.LBB8098:
	.loc 19 597 0
#APP
# 597 "src/usb-uhci.c" 1
	movw 8(%esp), %ES
# 0 "" 2
#NO_APP
	andl	$-16, %eax
	movl	(%esp), %edx
#APP
# 597 "src/usb-uhci.c" 1
	movl %eax, %ES:(%edx)
# 0 "" 2
#NO_APP
.LBE8098:
.LBE8097:
	.loc 19 598 0
.LBB8099:
.LBB8100:
	.loc 19 599 0
#APP
# 599 "src/usb-uhci.c" 1
	movw 12(%esp), %ES
# 0 "" 2
#NO_APP
	movl	16(%esp), %eax
	andl	$67108864, %eax
	orl	$8388608, %eax
#APP
# 599 "src/usb-uhci.c" 1
	movl %eax, %ES:(%ebp)
# 0 "" 2
#NO_APP
	jmp	.L304
.LVL537:
.L298:
.LBE8100:
.LBE8099:
.LBE8083:
.LBE8082:
.LBB8101:
.LBB8102:
.LBB8103:
	.file 20 "src/usb-ohci.c"
	.loc 20 502 0
	leal	20(%ecx), %eax
.LVL538:
	movl	%eax, %edx
	shrl	$4, %edx
#APP
# 502 "src/usb-ohci.c" 1
	movw %dx, %ES
# 0 "" 2
#NO_APP
.LBB8104:
	andl	$15, %eax
#APP
# 502 "src/usb-ohci.c" 1
	movl %ES:(%eax), %edi
# 0 "" 2
.LVL539:
#NO_APP
.LBE8104:
.LBE8103:
.LBB8105:
	.loc 20 503 0
	leal	-8(%ecx), %eax
	movl	%eax, %edx
	shrl	$4, %edx
#APP
# 503 "src/usb-ohci.c" 1
	movw %dx, %ES
# 0 "" 2
#NO_APP
.LBB8106:
	andl	$15, %eax
#APP
# 503 "src/usb-ohci.c" 1
	movl %ES:(%eax), %ebp
# 0 "" 2
.LVL540:
#NO_APP
.LBE8106:
.LBE8105:
.LBB8107:
	.loc 20 504 0
	leal	-12(%ecx), %eax
	movl	%eax, %ebx
	shrl	$4, %ebx
	movl	%ebx, 12(%esp)
#APP
# 504 "src/usb-ohci.c" 1
	movw %bx, %ES
# 0 "" 2
#NO_APP
.LBB8108:
	andl	$15, %eax
	movl	%eax, 16(%esp)
#APP
# 504 "src/usb-ohci.c" 1
	movl %ES:(%eax), %ebx
# 0 "" 2
.LVL541:
#NO_APP
.LBE8108:
.LBE8107:
.LBB8109:
	.loc 20 505 0
	leal	16(%ecx), %eax
	movl	%eax, %edx
	shrl	$4, %edx
#APP
# 505 "src/usb-ohci.c" 1
	movw %dx, %ES
# 0 "" 2
#NO_APP
.LBB8110:
	andl	$15, %eax
#APP
# 505 "src/usb-ohci.c" 1
	movl %ES:(%eax), %esi
# 0 "" 2
.LVL542:
#NO_APP
.LBE8110:
.LBE8109:
	.loc 20 506 0
	movl	%ebx, %eax
	subl	%edi, %eax
	sarl	$4, %eax
	movl	%eax, 4(%esp)
	incl	%eax
	cltd
	idivl	%esi
	.loc 20 507 0
	movl	%edx, %eax
	sall	$4, %eax
	leal	(%edi,%eax), %eax
	movl	%eax, 8(%esp)
	.loc 20 508 0
	orl	$-1, %eax
	cmpl	%ebp, 8(%esp)
	je	.L301
.LBB8111:
	.loc 20 514 0
	leal	8(%ecx), %eax
	movl	%eax, %esi
.LVL543:
	shrl	$4, %esi
#APP
# 514 "src/usb-ohci.c" 1
	movw %si, %ES
# 0 "" 2
#NO_APP
.LBB8112:
	andl	$15, %eax
#APP
# 514 "src/usb-ohci.c" 1
	movw %ES:(%eax), %bp
# 0 "" 2
.LVL544:
#NO_APP
.LBE8112:
.LBE8111:
	movzwl	%bp, %ebp
.LVL545:
.LBB8113:
	.loc 20 515 0
	addl	$12, %ecx
.LVL546:
	movl	%ecx, %eax
	shrl	$4, %eax
#APP
# 515 "src/usb-ohci.c" 1
	movw %ax, %ES
# 0 "" 2
#NO_APP
.LBB8114:
	andl	$15, %ecx
#APP
# 515 "src/usb-ohci.c" 1
	movl %ES:(%ecx), %eax
# 0 "" 2
#NO_APP
	movl	%eax, 20(%esp)
.LBE8114:
.LBE8113:
	.loc 20 518 0
	movl	%ebp, %esi
	imull	%edx, %esi
	addl	%eax, %esi
.LBB8115:
	.loc 20 517 0
#APP
# 517 "src/usb-ohci.c" 1
	movw %SS, %ax
# 0 "" 2
.LVL547:
#NO_APP
.LBE8115:
.LBB8116:
.LBB8117:
	.loc 16 156 0
#APP
# 156 "src/util.c" 1
	movw %ax, %ES
# 0 "" 2
	.loc 16 158 0
#NO_APP
	movl	%esi, %edx
	shrl	$4, %edx
	andl	$15, %esi
	movl	%ebp, %ecx
.LVL548:
	movl	24(%esp), %edi
.LVL549:
#APP
# 158 "src/util.c" 1
	movw %ds, %ax
movw %dx, %ds
rep movsb (%si),%es:(%di)
movw %ax, %ds
# 0 "" 2
.LVL550:
#NO_APP
.LBE8117:
.LBE8116:
.LBB8118:
.LBB8119:
	.loc 20 522 0
	movl	%ebx, %eax
.LVL551:
	shrl	$4, %eax
#APP
# 522 "src/usb-ohci.c" 1
	movw %ax, %ES
# 0 "" 2
#NO_APP
	movl	%ebx, %eax
	andl	$15, %eax
	movl	$-267386880, %edx
#APP
# 522 "src/usb-ohci.c" 1
	movl %edx, %ES:(%eax)
# 0 "" 2
#NO_APP
.LBE8119:
.LBE8118:
.LBB8120:
.LBB8121:
	.loc 20 524 0
	movl	4(%esp), %eax
	imull	%ebp, %eax
	addl	20(%esp), %eax
.LVL552:
	leal	4(%ebx), %edx
	movl	%edx, %ecx
.LVL553:
	shrl	$4, %ecx
#APP
# 524 "src/usb-ohci.c" 1
	movw %cx, %ES
# 0 "" 2
#NO_APP
	andl	$15, %edx
#APP
# 524 "src/usb-ohci.c" 1
	movl %eax, %ES:(%edx)
# 0 "" 2
#NO_APP
.LBE8121:
.LBE8120:
.LBB8122:
.LBB8123:
	.loc 20 525 0
	leal	8(%ebx), %edx
	movl	%edx, %ecx
	shrl	$4, %ecx
#APP
# 525 "src/usb-ohci.c" 1
	movw %cx, %ES
# 0 "" 2
#NO_APP
	andl	$15, %edx
	movl	8(%esp), %ecx
#APP
# 525 "src/usb-ohci.c" 1
	movl %ecx, %ES:(%edx)
# 0 "" 2
#NO_APP
.LBE8123:
.LBE8122:
.LBB8124:
.LBB8125:
	.loc 20 526 0
	addl	$12, %ebx
.LVL554:
	movl	%ebx, %edx
	shrl	$4, %edx
#APP
# 526 "src/usb-ohci.c" 1
	movw %dx, %ES
# 0 "" 2
#NO_APP
	andl	$15, %ebx
	leal	-1(%ebp,%eax), %eax
.LVL555:
#APP
# 526 "src/usb-ohci.c" 1
	movl %eax, %ES:(%ebx)
# 0 "" 2
#NO_APP
.LBE8125:
.LBE8124:
	.loc 20 527 0
.LBB8126:
.LBB8127:
	.loc 20 528 0
#APP
# 528 "src/usb-ohci.c" 1
	movw 12(%esp), %ES
# 0 "" 2
#NO_APP
	movl	16(%esp), %ebx
#APP
# 528 "src/usb-ohci.c" 1
	movl %ecx, %ES:(%ebx)
# 0 "" 2
.LVL556:
#NO_APP
.L304:
	xorl	%eax, %eax
	jmp	.L301
.LVL557:
.L299:
.LBE8127:
.LBE8126:
.LBE8102:
.LBE8101:
.LBB8128:
.LBB8129:
.LBB8130:
	.file 21 "src/usb-ehci.c"
	.loc 21 736 0
	leal	-12(%ecx), %ebp
	movl	%ebp, %eax
.LVL558:
	shrl	$4, %eax
	movl	%eax, 12(%esp)
#APP
# 736 "src/usb-ehci.c" 1
	movw %ax, %ES
# 0 "" 2
#NO_APP
.LBB8131:
	andl	$15, %ebp
	movl	%ebp, (%esp)
#APP
# 736 "src/usb-ehci.c" 1
	movl %ES:(%ebp), %edx
# 0 "" 2
.LVL559:
#NO_APP
.LBE8131:
.LBE8130:
.LBB8132:
	.loc 21 737 0
	leal	8(%edx), %eax
	movl	%eax, %ebx
	shrl	$4, %ebx
	movl	%ebx, 16(%esp)
#APP
# 737 "src/usb-ehci.c" 1
	movw %bx, %ES
# 0 "" 2
#NO_APP
.LBB8133:
	andl	$15, %eax
	movl	%eax, 20(%esp)
#APP
# 737 "src/usb-ehci.c" 1
	movl %ES:(%eax), %eax
# 0 "" 2
.LVL560:
#NO_APP
.LBE8133:
.LBE8132:
	.loc 21 738 0
	testb	%al, %al
	js	.L300
.LBB8134:
	.loc 21 744 0
	leal	8(%ecx), %eax
.LVL561:
	movl	%eax, %ebx
	shrl	$4, %ebx
#APP
# 744 "src/usb-ehci.c" 1
	movw %bx, %ES
# 0 "" 2
#NO_APP
.LBB8135:
	andl	$15, %eax
#APP
# 744 "src/usb-ehci.c" 1
	movw %ES:(%eax), %ax
# 0 "" 2
.LVL562:
#NO_APP
.LBE8135:
.LBE8134:
	movzwl	%ax, %eax
.LVL563:
	movl	%eax, 8(%esp)
.LBB8136:
	.loc 21 745 0
	leal	-8(%ecx), %eax
	movl	%eax, %ebx
	shrl	$4, %ebx
#APP
# 745 "src/usb-ehci.c" 1
	movw %bx, %ES
# 0 "" 2
#NO_APP
.LBB8137:
	andl	$15, %eax
#APP
# 745 "src/usb-ehci.c" 1
	movl %ES:(%eax), %eax
# 0 "" 2
.LVL564:
#NO_APP
.LBE8137:
.LBE8136:
.LBB8138:
	.loc 21 746 0
	subl	$4, %ecx
.LVL565:
	movl	%ecx, %ebx
	shrl	$4, %ebx
#APP
# 746 "src/usb-ehci.c" 1
	movw %bx, %ES
# 0 "" 2
#NO_APP
.LBB8139:
	andl	$15, %ecx
#APP
# 746 "src/usb-ehci.c" 1
	movl %ES:(%ecx), %ecx
# 0 "" 2
.LVL566:
#NO_APP
.LBE8139:
.LBE8138:
	.loc 21 748 0
	movl	%edx, %ebx
	subl	%eax, %ebx
	sarl	$5, %ebx
	imull	8(%esp), %ebx
	leal	(%ecx,%ebx), %ebx
.LBB8140:
	.loc 21 747 0
#APP
# 747 "src/usb-ehci.c" 1
	movw %SS, %ax
# 0 "" 2
.LVL567:
#NO_APP
.LBE8140:
.LBB8141:
.LBB8142:
	.loc 16 156 0
#APP
# 156 "src/util.c" 1
	movw %ax, %ES
# 0 "" 2
	.loc 16 158 0
#NO_APP
	movl	%ebx, %ebp
	shrl	$4, %ebp
	movl	%ebp, 4(%esp)
	movl	%ebx, %esi
	andl	$15, %esi
	movl	8(%esp), %ecx
.LVL568:
	movl	24(%esp), %edi
.LVL569:
#APP
# 158 "src/util.c" 1
	movw %ds, %ax
movw %bp, %ds
rep movsb (%si),%es:(%di)
movw %ax, %ds
# 0 "" 2
.LVL570:
#NO_APP
.LBE8142:
.LBE8141:
.LBB8143:
	.loc 21 752 0
	movl	%edx, %eax
	shrl	$4, %eax
#APP
# 752 "src/usb-ehci.c" 1
	movw %ax, %ES
# 0 "" 2
#NO_APP
.LBB8144:
	movl	%edx, %eax
	andl	$15, %eax
#APP
# 752 "src/usb-ehci.c" 1
	movl %ES:(%eax), %eax
# 0 "" 2
#NO_APP
.LBE8144:
.LBE8143:
.LBB8145:
.LBB8146:
	.loc 21 753 0
#APP
# 753 "src/usb-ehci.c" 1
	movw 12(%esp), %ES
# 0 "" 2
#NO_APP
	andl	$-32, %eax
	movl	(%esp), %ecx
.LVL571:
#APP
# 753 "src/usb-ehci.c" 1
	movl %eax, %ES:(%ecx)
# 0 "" 2
#NO_APP
.LBE8146:
.LBE8145:
.LBB8147:
.LBB8148:
	.loc 21 754 0
	addl	$12, %edx
.LVL572:
	movl	%edx, %eax
	shrl	$4, %eax
#APP
# 754 "src/usb-ehci.c" 1
	movw %ax, %ES
# 0 "" 2
#NO_APP
	andl	$15, %edx
#APP
# 754 "src/usb-ehci.c" 1
	movl %ebx, %ES:(%edx)
# 0 "" 2
#NO_APP
.LBE8148:
.LBE8147:
	.loc 21 755 0
.LBB8149:
.LBB8150:
	.loc 21 756 0
#APP
# 756 "src/usb-ehci.c" 1
	movw 16(%esp), %ES
# 0 "" 2
#NO_APP
	movl	8(%esp), %eax
	sall	$16, %eax
	andl	$2147418112, %eax
	orl	$3456, %eax
	movl	20(%esp), %ebx
#APP
# 756 "src/usb-ehci.c" 1
	movl %eax, %ES:(%ebx)
# 0 "" 2
#NO_APP
	jmp	.L304
.LVL573:
.L300:
	orl	$-1, %eax
.LVL574:
.L301:
.LBE8150:
.LBE8149:
.LBE8129:
.LBE8128:
	.loc 18 152 0
	addl	$28, %esp
	popl	%ebx
.LVL575:
	popl	%esi
.LVL576:
	popl	%edi
.LVL577:
	popl	%ebp
.LVL578:
	ret
	.cfi_endproc
.LFE2122:
	.size	usb_poll_intr.42677, .-usb_poll_intr.42677
	.section	.text.usb_check_mouse.51624,"ax",@progbits
	.type	usb_check_mouse.51624, @function
usb_check_mouse.51624:
.LFB2469:
	.file 22 "src/usb-hid.c"
	.loc 22 352 0
	.cfi_startproc
	pushl	%ebp
.LCFI106:
	.cfi_def_cfa_offset 8
	pushl	%edi
.LCFI107:
	.cfi_def_cfa_offset 12
	pushl	%esi
.LCFI108:
	.cfi_def_cfa_offset 16
	pushl	%ebx
.LCFI109:
	.cfi_def_cfa_offset 20
	subl	$20, %esp
.LCFI110:
	.cfi_def_cfa_offset 40
.LBB8151:
	.loc 22 355 0
#APP
# 355 "src/usb-hid.c" 1
	movl %CS:mouse_pipe, %ebx
# 0 "" 2
.LVL579:
#NO_APP
.LBE8151:
	.loc 22 356 0
	testl	%ebx, %ebx
	je	.L312
	.cfi_offset 3, -20
	.cfi_offset 6, -16
	.cfi_offset 7, -12
	.cfi_offset 5, -8
.LBB8152:
	.loc 22 361 0
	leal	12(%esp), %esi
.L313:
	movl	%esi, %edx
	movl	%ebx, %eax
	call	usb_poll_intr.42677
	.loc 22 362 0
	testl	%eax, %eax
.LVL580:
	jne	.L312
.LBB8153:
.LBB8154:
	.loc 22 341 0
	movb	13(%esp), %al
.LVL581:
	movb	%al, 3(%esp)
	movb	14(%esp), %dl
.LVL582:
	negl	%edx
.LVL583:
	.loc 22 343 0
	movb	12(%esp), %al
	movb	3(%esp), %cl
	sarb	$7, %cl
	movl	%ecx, %ebp
	andl	$16, %ebp
	movb	%dl, %cl
	sarb	$7, %cl
	movl	%ecx, %edi
	andl	$32, %edi
	.loc 22 344 0
	andl	$7, %eax
	orl	$8, %eax
	orl	%ebp, %eax
	orl	%edi, %eax
	movzbl	%al, %eax
	movb	%dl, 8(%esp)
.LVL584:
	call	process_mouse.1711
	.loc 22 345 0
	movzbl	3(%esp), %eax
	call	process_mouse.1711
	.loc 22 346 0
	movb	8(%esp), %dl
	movzbl	%dl, %eax
.LVL585:
	call	process_mouse.1711
.LVL586:
.LBE8154:
.LBE8153:
.LBE8152:
	.loc 22 365 0
	jmp	.L313
.LVL587:
.L312:
	.loc 22 366 0
	addl	$20, %esp
	popl	%ebx
.LVL588:
	popl	%esi
	popl	%edi
	popl	%ebp
	ret
	.cfi_endproc
.LFE2469:
	.size	usb_check_mouse.51624, .-usb_check_mouse.51624
	.section	.rodata.str1.1,"aMS",@progbits,1
.LC0:
	.string	"Standby"
.LC1:
	.string	"Suspend"
.LC2:
	.string	"Shutdown"
	.section	.text.handle_1553.1762,"ax",@progbits
	.type	handle_1553.1762, @function
handle_1553.1762:
.LFB2853:
	.file 23 "src/apm.c"
	.loc 23 200 0
	.cfi_startproc
.LVL589:
	pushl	%ebx
.LCFI111:
	.cfi_def_cfa_offset 8
	movl	%eax, %ecx
	.loc 23 207 0
	movb	28(%eax), %al
.LVL590:
	cmpb	$6, %al
	je	.L346
	.cfi_offset 3, -8
	ja	.L330
	cmpb	$2, %al
	je	.L318
	ja	.L331
	testb	%al, %al
	je	.L316
	decb	%al
	jne	.L315
	jmp	.L346
.L331:
	cmpb	$4, %al
	je	.L346
	ja	.L321
	jmp	.L351
.L330:
	cmpb	$11, %al
	je	.L326
	ja	.L332
	cmpb	$8, %al
	je	.L346
	jb	.L323
	cmpb	$10, %al
	jne	.L315
	jmp	.L352
.L332:
	cmpb	$15, %al
	je	.L346
	cmpb	$16, %al
	je	.L329
	cmpb	$14, %al
	jne	.L315
	jmp	.L353
.L316:
.LBB8155:
.LBB8156:
	.loc 23 38 0
	movb	$1, 29(%ecx)
	.loc 23 39 0
	movb	$2, 28(%ecx)
	.loc 23 40 0
	movb	$80, 17(%ecx)
	.loc 23 41 0
	movb	$77, 16(%ecx)
	.loc 23 44 0
	movw	$3, 24(%ecx)
	jmp	.L346
.L318:
.LBE8156:
.LBE8155:
.LBB8157:
.LBB8158:
	.loc 23 63 0
	movl	$apm16protected_entry, %eax
	movw	%ax, 16(%ecx)
	.loc 23 64 0
	movw	$-4096, 28(%ecx)
	.loc 23 65 0
	movw	$-16, 8(%ecx)
	.loc 23 66 0
	movw	$-4096, 24(%ecx)
	jmp	.L347
.L351:
.LBE8158:
.LBE8157:
.LBB8159:
.LBB8160:
	.loc 23 75 0
	movw	$-4096, 28(%ecx)
	.loc 23 76 0
	movl	$apm32protected_entry, 16(%ecx)
	.loc 23 77 0
	movw	$-4096, 24(%ecx)
	.loc 23 80 0
	movl	$-983056, 8(%ecx)
	.loc 23 81 0
	movw	$-4096, 20(%ecx)
.L347:
	.loc 23 82 0
	movw	$-16, 4(%ecx)
	jmp	.L346
.L321:
.LBE8160:
.LBE8159:
.LBB8161:
.LBB8162:
.LBB8163:
	.loc 6 139 0
#APP
# 139 "src/stacks.c" 1
	sti ; hlt ; cli ; cld
# 0 "" 2
#NO_APP
	jmp	.L346
.L323:
.LBE8163:
.LBE8162:
.LBE8161:
.LBB8164:
.LBB8165:
	.loc 23 121 0
	cmpw	$1, 16(%ecx)
	jne	.L346
	.loc 23 125 0
	movw	24(%ecx), %ax
	cmpw	$2, %ax
	je	.L337
	cmpw	$3, %ax
	je	.L338
	decw	%ax
	jne	.L346
.LBB8166:
.LBB8167:
	.loc 23 24 0
	movl	$.LC0, %ebx
.LVL591:
.LBB8168:
.LBB8169:
.LBB8170:
	.loc 2 83 0
	movl	$-30464, %edx
.LVL592:
.L339:
.LBE8170:
.LBE8169:
.LBB8172:
	.loc 23 26 0
#APP
# 26 "src/apm.c" 1
	movb %CS:(%ebx), %al
# 0 "" 2
#NO_APP
.LBE8172:
	.loc 23 27 0
	testb	%al, %al
	je	.L346
.LBB8173:
.LBB8171:
	.loc 2 83 0
#APP
# 83 "src/ioport.h" 1
	outb %al, %dx
# 0 "" 2
#NO_APP
.LBE8171:
.LBE8173:
	.loc 23 30 0
	incl	%ebx
	jmp	.L339
.LVL593:
.L337:
.LBE8168:
.LBE8167:
.LBE8166:
.LBB8174:
.LBB8175:
	.loc 23 24 0
	movl	$.LC1, %ebx
.LVL594:
.LBB8176:
.LBB8177:
.LBB8178:
	.loc 2 83 0
	movl	$-30464, %edx
.LVL595:
.L340:
.LBE8178:
.LBE8177:
.LBB8180:
	.loc 23 26 0
#APP
# 26 "src/apm.c" 1
	movb %CS:(%ebx), %al
# 0 "" 2
#NO_APP
.LBE8180:
	.loc 23 27 0
	testb	%al, %al
	je	.L346
.LBB8181:
.LBB8179:
	.loc 2 83 0
#APP
# 83 "src/ioport.h" 1
	outb %al, %dx
# 0 "" 2
#NO_APP
.LBE8179:
.LBE8181:
	.loc 23 30 0
	incl	%ebx
	jmp	.L340
.LVL596:
.L338:
.LBE8176:
.LBE8175:
.LBE8174:
.LBB8182:
.LBB8183:
.LBB8184:
	.loc 8 13 0
#APP
# 13 "src/util.h" 1
	cli
# 0 "" 2
#NO_APP
.LBE8184:
.LBE8183:
.LBB8185:
.LBB8186:
	.loc 23 24 0
	movl	$.LC2, %ecx
.LVL597:
.LBB8187:
.LBB8188:
.LBB8189:
	.loc 2 83 0
	movl	$-30464, %edx
.LVL598:
.L342:
.LBE8189:
.LBE8188:
.LBB8191:
	.loc 23 26 0
#APP
# 26 "src/apm.c" 1
	movb %CS:(%ecx), %al
# 0 "" 2
#NO_APP
.LBE8191:
	.loc 23 27 0
	testb	%al, %al
	je	.L344
.LBB8192:
.LBB8190:
	.loc 2 83 0
#APP
# 83 "src/ioport.h" 1
	outb %al, %dx
# 0 "" 2
#NO_APP
.LBE8190:
.LBE8192:
	.loc 23 30 0
	incl	%ecx
	jmp	.L342
.L344:
.LBE8187:
.LBE8186:
.LBE8185:
.LBB8193:
.LBB8194:
	.loc 8 46 0
#APP
# 46 "src/util.h" 1
	hlt
# 0 "" 2
#NO_APP
	jmp	.L344
.LVL599:
.L352:
.LBE8194:
.LBE8193:
.LBE8182:
.LBE8165:
.LBE8164:
.LBB8195:
.LBB8196:
	.loc 23 149 0
	movb	$1, 17(%ecx)
	.loc 23 150 0
	movb	$-1, 16(%ecx)
	.loc 23 151 0
	movb	$-128, 25(%ecx)
	.loc 23 152 0
	movb	$-1, 24(%ecx)
	.loc 23 153 0
	movw	$-1, 20(%ecx)
	.loc 23 154 0
	movw	$0, 8(%ecx)
	jmp	.L346
.L326:
.LBE8196:
.LBE8195:
.LBB8197:
.LBB8198:
.LBB8199:
	.loc 14 90 0
	movb	$-128, 29(%ecx)
	jmp	.L315
.L353:
.LBE8199:
.LBE8198:
.LBE8197:
.LBB8200:
.LBB8201:
	.loc 23 171 0
	movb	$1, 29(%ecx)
	.loc 23 172 0
	movb	$2, 28(%ecx)
	jmp	.L346
.L329:
.LBE8201:
.LBE8200:
.LBB8202:
.LBB8203:
	.loc 23 187 0
	movb	$0, 16(%ecx)
	.loc 23 188 0
	movw	$0, 24(%ecx)
.LVL600:
.L346:
.LBB8204:
.LBB8205:
.LBB8206:
	.loc 14 62 0
	andw	$-2, 36(%ecx)
.LBE8206:
.LBE8205:
.LBE8204:
.LBE8203:
.LBE8202:
	.loc 23 221 0
	jmp	.L343
.LVL601:
.L315:
.LBB8207:
.LBB8208:
.LBB8209:
.LBB8210:
.LBB8211:
.LBB8212:
	.loc 14 60 0
	orw	$1, 36(%ecx)
.LVL602:
.L343:
.LBE8212:
.LBE8211:
.LBE8210:
.LBE8209:
.LBE8208:
.LBE8207:
	.loc 23 224 0
	popl	%ebx
.LVL603:
	ret
	.cfi_endproc
.LFE2853:
	.size	handle_1553.1762, .-handle_1553.1762
	.section	.text.handle_apm16,"ax",@progbits
.globl handle_apm16
	.type	handle_apm16, @function
handle_apm16:
.LFB2854:
	.loc 23 228 0
	.cfi_startproc
.LVL604:
	.loc 23 230 0
	jmp	handle_1553.1762
.LVL605:
	.cfi_endproc
.LFE2854:
	.size	handle_apm16, .-handle_apm16
	.section	.text.basic_access.62538,"ax",@progbits
	.type	basic_access.62538, @function
basic_access.62538:
.LFB3046:
	.file 24 "src/disk.c"
	.loc 24 81 0
	.cfi_startproc
.LVL606:
	pushl	%ebp
.LCFI112:
	.cfi_def_cfa_offset 8
	pushl	%edi
.LCFI113:
	.cfi_def_cfa_offset 12
	pushl	%esi
.LCFI114:
	.cfi_def_cfa_offset 16
	pushl	%ebx
.LCFI115:
	.cfi_def_cfa_offset 20
	subl	$48, %esp
.LCFI116:
	.cfi_def_cfa_offset 68
	movl	%eax, %edi
	.cfi_offset 3, -20
	.cfi_offset 6, -16
	.cfi_offset 7, -12
	.cfi_offset 5, -8
	.loc 24 86 0
	movb	28(%eax), %al
.LVL607:
	.loc 24 87 0
	movzbl	25(%edi), %ebp
	movb	24(%edi), %bl
	movb	%bl, 4(%esp)
	.loc 24 89 0
	movb	21(%edi), %bl
	movb	%bl, 20(%esp)
	.loc 24 91 0
	movb	4(%esp), %bl
	andw	$63, %bx
	movw	%bx, 26(%esp)
	je	.L364
	movb	%al, %bl
	decb	%bl
	js	.L364
	.loc 24 83 0
	movl	%edx, 40(%esp)
	.loc 24 84 0
	movb	%cl, 46(%esp)
	.loc 24 96 0
	movzbl	%al, %eax
.LVL608:
	movw	%ax, 44(%esp)
.LBB8213:
.LBB8214:
.LBB8215:
	.loc 24 62 0
#APP
# 62 "src/disk.c" 1
	movl %CS:cdemu_drive_gf, %eax
# 0 "" 2
.LVL609:
#NO_APP
.LBE8215:
	.loc 24 61 0
	subl	$983040, %eax
.LVL610:
	cmpl	%eax, %edx
	jne	.L362
.LBB8216:
.LBB8217:
.LBB8218:
	.loc 10 253 0
	movl	$64, %eax
#APP
# 253 "src/biosvar.h" 1
	movw %ax, %ES
# 0 "" 2
#NO_APP
.LBB8219:
#APP
# 253 "src/biosvar.h" 1
	movw %ES:14, %dx
# 0 "" 2
.LVL611:
#NO_APP
.LBE8219:
.LBE8218:
.LBE8217:
	.loc 24 68 0
#APP
# 68 "src/disk.c" 1
	movw %dx, %ES
# 0 "" 2
#NO_APP
.LBB8220:
#APP
# 68 "src/disk.c" 1
	movw %ES:322, %cx
# 0 "" 2
.LVL612:
#NO_APP
.LBE8220:
	.loc 24 69 0
#APP
# 69 "src/disk.c" 1
	movw %dx, %ES
# 0 "" 2
#NO_APP
.LBB8221:
#APP
# 69 "src/disk.c" 1
	movw %ES:320, %ax
# 0 "" 2
.LVL613:
#NO_APP
.LBE8221:
	.loc 24 70 0
#APP
# 70 "src/disk.c" 1
	movw %dx, %ES
# 0 "" 2
#NO_APP
.LBB8222:
#APP
# 70 "src/disk.c" 1
	movw %ES:324, %dx
# 0 "" 2
.LVL614:
#NO_APP
	jmp	.L363
.LVL615:
.L362:
.LBE8222:
.LBE8216:
.LBB8223:
	.loc 24 73 0
#APP
# 73 "src/disk.c" 1
	movw %CS:4(%edx), %cx
# 0 "" 2
.LVL616:
#NO_APP
.LBE8223:
.LBB8224:
	.loc 24 74 0
#APP
# 74 "src/disk.c" 1
	movw %CS:2(%edx), %ax
# 0 "" 2
.LVL617:
#NO_APP
.LBE8224:
.LBB8225:
	.loc 24 75 0
#APP
# 75 "src/disk.c" 1
	movw %CS:6(%edx), %dx
# 0 "" 2
.LVL618:
#NO_APP
.L363:
.LBE8225:
.LBE8214:
.LBE8213:
	.loc 24 87 0
	movb	4(%esp), %bl
	sall	$2, %ebx
.LVL619:
	andw	$768, %bx
.LVL620:
	andw	$255, %bp
	orl	%ebp, %ebx
.LVL621:
	.loc 24 102 0
	cmpw	%cx, %bx
	jae	.L364
	.loc 24 89 0
	movzbl	20(%esp), %esi
.LVL622:
	.loc 24 102 0
	cmpw	%ax, %si
	jae	.L364
	cmpw	%dx, 26(%esp)
	jbe	.L365
.LVL623:
.L364:
.LBB8226:
.LBB8227:
	.loc 24 26 0
	cmpb	$0, 20(%edi)
	js	.L366
.LBB8228:
	.loc 24 27 0
	movl	$64, %eax
.LVL624:
#APP
# 27 "src/disk.c" 1
	movw %ax, %ES
# 0 "" 2
#NO_APP
	movb	$1, %al
#APP
# 27 "src/disk.c" 1
	movb %al, %ES:65
# 0 "" 2
#NO_APP
	jmp	.L367
.LVL625:
.L366:
.LBE8228:
.LBB8229:
	.loc 24 29 0
	movl	$64, %eax
.LVL626:
#APP
# 29 "src/disk.c" 1
	movw %ax, %ES
# 0 "" 2
#NO_APP
	movb	$1, %al
#APP
# 29 "src/disk.c" 1
	movb %al, %ES:116
# 0 "" 2
#NO_APP
.L367:
.LBE8229:
.LBB8230:
.LBB8231:
.LBB8232:
.LBB8233:
	.loc 14 90 0
	movb	$1, 29(%edi)
	jmp	.L373
.LVL627:
.L365:
.LBE8233:
.LBE8232:
.LBE8231:
.LBE8230:
.LBE8227:
.LBE8226:
	.loc 24 109 0
	movzwl	26(%esp), %ecx
.LVL628:
	movzwl	%ax, %eax
.LVL629:
	movzwl	%bx, %ebx
.LVL630:
	imull	%ebx, %eax
	movzwl	%si, %esi
.LVL631:
	addl	%esi, %eax
	movzwl	%dx, %edx
.LVL632:
	imull	%edx, %eax
	leal	-1(%ecx,%eax), %eax
	movl	%eax, 28(%esp)
	movl	$0, 32(%esp)
	.loc 24 112 0
	movzwl	2(%edi), %eax
	sall	$4, %eax
	movzwl	16(%edi), %edx
.LVL633:
	addl	%edx, %eax
	movl	%eax, 36(%esp)
.LBB8234:
.LBB8235:
	.file 25 "src/block.c"
	.loc 25 330 0
#APP
# 330 "src/block.c" 1
	movw %SS, %dx
# 0 "" 2
.LVL634:
#NO_APP
.LBE8235:
.LBB8236:
.LBB8237:
.LBB8238:
.LBB8239:
	.loc 10 253 0
	movl	$64, %esi
.LVL635:
#APP
# 253 "src/biosvar.h" 1
	movw %si, %ES
# 0 "" 2
#NO_APP
.LBB8240:
#APP
# 253 "src/biosvar.h" 1
	movw %ES:14, %bp
# 0 "" 2
#NO_APP
	movw	%bp, 26(%esp)
.LBE8240:
.LBE8239:
.LBE8238:
	.loc 6 167 0
	leal	28(%esp), %eax
	movzwl	%dx, %edx
.LVL636:
	movl	$__send_disk_op.11050, %ecx
.LVL637:
#APP
# 167 "src/stacks.c" 1
	movw %ss, %bx
movl %esp, %esi
movw %bp, %ds
movw %bp, %ss
movl $872, %esp
calll *%ecx
movw %bx, %ds
movw %bx, %ss
movl %esi, %esp
# 0 "" 2
.LVL638:
#NO_APP
.LBE8237:
.LBE8236:
.LBE8234:
	.loc 24 116 0
	movl	44(%esp), %edx
.LVL639:
	movb	%dl, 28(%edi)
.LBB8241:
.LBB8242:
	.loc 24 26 0
	cmpb	$0, 20(%edi)
	js	.L368
.LBB8243:
	.loc 24 27 0
	movl	$64, %ebp
#APP
# 27 "src/disk.c" 1
	movw %bp, %ES
# 0 "" 2
# 27 "src/disk.c" 1
	movb %al, %ES:65
# 0 "" 2
.LVL640:
#NO_APP
	jmp	.L369
.LVL641:
.L368:
.LBE8243:
.LBB8244:
	.loc 24 29 0
	movl	$64, %edx
#APP
# 29 "src/disk.c" 1
	movw %dx, %ES
# 0 "" 2
# 29 "src/disk.c" 1
	movb %al, %ES:116
# 0 "" 2
.LVL642:
#NO_APP
.L369:
.LBE8244:
	.loc 24 30 0
	testb	%al, %al
	je	.L370
.LBB8245:
.LBB8246:
.LBB8247:
.LBB8248:
	.loc 14 90 0
	movb	%al, 29(%edi)
.LVL643:
.L373:
.LBB8249:
.LBB8250:
	.loc 14 60 0
	orw	$1, 36(%edi)
	jmp	.L371
.LVL644:
.L370:
.LBE8250:
.LBE8249:
.LBE8248:
.LBE8247:
.LBE8246:
.LBE8245:
.LBB8251:
.LBB8252:
	.loc 14 77 0
	movb	$0, 29(%edi)
.LBB8253:
.LBB8254:
	.loc 14 62 0
	andw	$-2, 36(%edi)
.LVL645:
.L371:
.LBE8254:
.LBE8253:
.LBE8252:
.LBE8251:
.LBE8242:
.LBE8241:
	.loc 24 119 0
	addl	$48, %esp
	popl	%ebx
.LVL646:
	popl	%esi
.LVL647:
	popl	%edi
.LVL648:
	popl	%ebp
	ret
	.cfi_endproc
.LFE3046:
	.size	basic_access.62538, .-basic_access.62538
	.section	.text.extended_access.62602,"ax",@progbits
	.type	extended_access.62602, @function
extended_access.62602:
.LFB3047:
	.loc 24 124 0
	.cfi_startproc
.LVL649:
	pushl	%ebp
.LCFI117:
	.cfi_def_cfa_offset 8
	pushl	%edi
.LCFI118:
	.cfi_def_cfa_offset 12
	pushl	%esi
.LCFI119:
	.cfi_def_cfa_offset 16
	pushl	%ebx
.LCFI120:
	.cfi_def_cfa_offset 20
	subl	$32, %esp
.LCFI121:
	.cfi_def_cfa_offset 52
	movl	%eax, %edi
	.cfi_offset 3, -20
	.cfi_offset 6, -16
	.cfi_offset 7, -12
	.cfi_offset 5, -8
	movw	%cx, 10(%esp)
	.loc 24 127 0
	movw	(%eax), %cx
.LVL650:
#APP
# 127 "src/disk.c" 1
	movw %cx, %ES
# 0 "" 2
#NO_APP
.LBB8255:
.LBB8256:
	movzwl	8(%eax), %eax
.LVL651:
#APP
# 127 "src/disk.c" 1
	movl %ES:8(%eax), %esi
# 0 "" 2
# 127 "src/disk.c" 1
	movl %ES:12(%eax), %ebx
# 0 "" 2
#NO_APP
.LBE8256:
.LBE8255:
.LBB8257:
.LBB8258:
	.loc 24 130 0
#APP
# 130 "src/disk.c" 1
	movl %CS:8(%edx), %ebp
# 0 "" 2
#NO_APP
	movl	%ebp, 4(%esp)
#APP
# 130 "src/disk.c" 1
	movl %CS:12(%edx), %ebp
# 0 "" 2
#NO_APP
.LBE8258:
.LBE8257:
	cmpl	%ebp, %ebx
	jb	.L377
	ja	.L386
	cmpl	4(%esp), %esi
	jb	.L377
.L386:
.LBB8259:
.LBB8260:
	.loc 24 26 0
	cmpb	$0, 20(%edi)
	js	.L379
.LBB8261:
	.loc 24 27 0
	movl	$64, %eax
#APP
# 27 "src/disk.c" 1
	movw %ax, %ES
# 0 "" 2
#NO_APP
	movb	$1, %al
#APP
# 27 "src/disk.c" 1
	movb %al, %ES:65
# 0 "" 2
#NO_APP
	jmp	.L380
.L379:
.LBE8261:
.LBB8262:
	.loc 24 29 0
	movl	$64, %eax
#APP
# 29 "src/disk.c" 1
	movw %ax, %ES
# 0 "" 2
#NO_APP
	movb	$1, %al
#APP
# 29 "src/disk.c" 1
	movb %al, %ES:116
# 0 "" 2
#NO_APP
.L380:
.LBE8262:
.LBB8263:
.LBB8264:
.LBB8265:
.LBB8266:
	.loc 14 90 0
	movb	$1, 29(%edi)
	jmp	.L387
.L377:
.LBE8266:
.LBE8265:
.LBE8264:
.LBE8263:
.LBE8260:
.LBE8259:
	.loc 24 136 0
#APP
# 136 "src/disk.c" 1
	movw %cx, %ES
# 0 "" 2
#NO_APP
.LBB8267:
#APP
# 136 "src/disk.c" 1
	movl %ES:4(%eax), %ebp
# 0 "" 2
#NO_APP
	movl	%ebp, (%esp)
.LBE8267:
.LBB8268:
.LBB8269:
	.file 26 "src/farptr.h"
	.loc 26 201 0
	shrl	$16, %ebp
	sall	$4, %ebp
	movl	%ebp, 4(%esp)
	movzwl	(%esp), %ebp
	movl	%ebp, (%esp)
	addl	4(%esp), %ebp
.LBE8269:
.LBE8268:
	.loc 24 127 0
	movl	%esi, 12(%esp)
	movl	%ebx, 16(%esp)
	.loc 24 128 0
	movb	10(%esp), %bl
	movb	%bl, 30(%esp)
	.loc 24 129 0
	movl	%edx, 24(%esp)
	.loc 24 136 0
	movl	%ebp, 20(%esp)
	.loc 24 137 0
#APP
# 137 "src/disk.c" 1
	movw %cx, %ES
# 0 "" 2
#NO_APP
.LBB8270:
#APP
# 137 "src/disk.c" 1
	movw %ES:2(%eax), %ax
# 0 "" 2
.LVL652:
#NO_APP
.LBE8270:
	movw	%ax, 28(%esp)
.LBB8271:
.LBB8272:
	.loc 25 330 0
#APP
# 330 "src/block.c" 1
	movw %SS, %dx
# 0 "" 2
.LVL653:
#NO_APP
.LBE8272:
.LBB8273:
.LBB8274:
.LBB8275:
.LBB8276:
	.loc 10 253 0
	movl	$64, %esi
#APP
# 253 "src/biosvar.h" 1
	movw %si, %ES
# 0 "" 2
#NO_APP
.LBB8277:
#APP
# 253 "src/biosvar.h" 1
	movw %ES:14, %bp
# 0 "" 2
#NO_APP
	movw	%bp, 4(%esp)
.LBE8277:
.LBE8276:
.LBE8275:
	.loc 6 167 0
	leal	12(%esp), %eax
.LVL654:
	movzwl	%dx, %edx
.LVL655:
	movl	$__send_disk_op.11050, %ecx
.LVL656:
#APP
# 167 "src/stacks.c" 1
	movw %ss, %bx
movl %esp, %esi
movw %bp, %ds
movw %bp, %ss
movl $872, %esp
calll *%ecx
movw %bx, %ds
movw %bx, %ss
movl %esi, %esp
# 0 "" 2
.LVL657:
#NO_APP
.LBE8274:
.LBE8273:
.LBE8271:
.LBB8278:
	.loc 24 141 0
#APP
# 141 "src/disk.c" 1
	movw (%edi), %ES
# 0 "" 2
#NO_APP
	movzwl	8(%edi), %edx
.LVL658:
	movl	28(%esp), %ecx
.LVL659:
#APP
# 141 "src/disk.c" 1
	movw %cx, %ES:2(%edx)
# 0 "" 2
#NO_APP
.LBE8278:
.LBB8279:
.LBB8280:
	.loc 24 26 0
	cmpb	$0, 20(%edi)
	js	.L382
.LBB8281:
	.loc 24 27 0
	movl	$64, %ebp
#APP
# 27 "src/disk.c" 1
	movw %bp, %ES
# 0 "" 2
# 27 "src/disk.c" 1
	movb %al, %ES:65
# 0 "" 2
.LVL660:
#NO_APP
	jmp	.L383
.LVL661:
.L382:
.LBE8281:
.LBB8282:
	.loc 24 29 0
	movl	$64, %edx
#APP
# 29 "src/disk.c" 1
	movw %dx, %ES
# 0 "" 2
# 29 "src/disk.c" 1
	movb %al, %ES:116
# 0 "" 2
.LVL662:
#NO_APP
.L383:
.LBE8282:
	.loc 24 30 0
	testb	%al, %al
	je	.L384
.LBB8283:
.LBB8284:
.LBB8285:
.LBB8286:
	.loc 14 90 0
	movb	%al, 29(%edi)
.LVL663:
.L387:
.LBB8287:
.LBB8288:
	.loc 14 60 0
	orw	$1, 36(%edi)
	jmp	.L385
.LVL664:
.L384:
.LBE8288:
.LBE8287:
.LBE8286:
.LBE8285:
.LBE8284:
.LBE8283:
.LBB8289:
.LBB8290:
	.loc 14 77 0
	movb	$0, 29(%edi)
.LBB8291:
.LBB8292:
	.loc 14 62 0
	andw	$-2, 36(%edi)
.LVL665:
.L385:
.LBE8292:
.LBE8291:
.LBE8290:
.LBE8289:
.LBE8280:
.LBE8279:
	.loc 24 144 0
	addl	$32, %esp
	popl	%ebx
	popl	%esi
	popl	%edi
.LVL666:
	popl	%ebp
	ret
	.cfi_endproc
.LFE3047:
	.size	extended_access.62602, .-extended_access.62602
	.section	.text.disk_1300.62721,"ax",@progbits
	.type	disk_1300.62721, @function
disk_1300.62721:
.LFB3048:
	.loc 24 154 0
	.cfi_startproc
.LVL667:
	pushl	%ebp
.LCFI122:
	.cfi_def_cfa_offset 8
	pushl	%edi
.LCFI123:
	.cfi_def_cfa_offset 12
	pushl	%esi
.LCFI124:
	.cfi_def_cfa_offset 16
	pushl	%ebx
.LCFI125:
	.cfi_def_cfa_offset 20
	subl	$32, %esp
.LCFI126:
	.cfi_def_cfa_offset 52
	movl	%eax, %edi
	.cfi_offset 3, -20
	.cfi_offset 6, -16
	.cfi_offset 7, -12
	.cfi_offset 5, -8
	.loc 24 156 0
	movl	%edx, 24(%esp)
	.loc 24 157 0
	movb	$0, 30(%esp)
.LBB8293:
.LBB8294:
	.loc 25 330 0
#APP
# 330 "src/block.c" 1
	movw %SS, %dx
# 0 "" 2
.LVL668:
#NO_APP
.LBE8294:
.LBB8295:
.LBB8296:
.LBB8297:
.LBB8298:
	.loc 10 253 0
	movl	$64, %eax
.LVL669:
#APP
# 253 "src/biosvar.h" 1
	movw %ax, %ES
# 0 "" 2
#NO_APP
.LBB8299:
#APP
# 253 "src/biosvar.h" 1
	movw %ES:14, %bx
# 0 "" 2
#NO_APP
	movw	%bx, 10(%esp)
.LBE8299:
.LBE8298:
.LBE8297:
	.loc 6 167 0
	leal	12(%esp), %eax
	movzwl	%dx, %edx
.LVL670:
	movl	$__send_disk_op.11050, %ecx
.LVL671:
#APP
# 167 "src/stacks.c" 1
	movw %ss, %si
movl %esp, %ebp
movw %bx, %ds
movw %bx, %ss
movl $872, %esp
calll *%ecx
movw %si, %ds
movw %si, %ss
movl %ebp, %esp
# 0 "" 2
.LVL672:
#NO_APP
.LBE8296:
.LBE8295:
.LBE8293:
.LBB8300:
.LBB8301:
	.loc 24 26 0
	cmpb	$0, 20(%edi)
	js	.L389
.LBB8302:
	.loc 24 27 0
	movl	$64, %edx
.LVL673:
#APP
# 27 "src/disk.c" 1
	movw %dx, %ES
# 0 "" 2
# 27 "src/disk.c" 1
	movb %al, %ES:65
# 0 "" 2
.LVL674:
#NO_APP
	jmp	.L390
.LVL675:
.L389:
.LBE8302:
.LBB8303:
	.loc 24 29 0
	movl	$64, %ebx
#APP
# 29 "src/disk.c" 1
	movw %bx, %ES
# 0 "" 2
# 29 "src/disk.c" 1
	movb %al, %ES:116
# 0 "" 2
.LVL676:
#NO_APP
.L390:
.LBE8303:
	.loc 24 30 0
	testb	%al, %al
	je	.L391
.LBB8304:
.LBB8305:
.LBB8306:
.LBB8307:
	.loc 14 90 0
	movb	%al, 29(%edi)
.LBB8308:
.LBB8309:
	.loc 14 60 0
	orw	$1, 36(%edi)
	jmp	.L393
.L391:
.LBE8309:
.LBE8308:
.LBE8307:
.LBE8306:
.LBE8305:
.LBE8304:
.LBB8310:
.LBB8311:
	.loc 14 77 0
	movb	$0, 29(%edi)
.LBB8312:
.LBB8313:
	.loc 14 62 0
	andw	$-2, 36(%edi)
.L393:
.LBE8313:
.LBE8312:
.LBE8311:
.LBE8310:
.LBE8301:
.LBE8300:
	.loc 24 160 0
	addl	$32, %esp
	popl	%ebx
	popl	%esi
	popl	%edi
.LVL677:
	popl	%ebp
	ret
	.cfi_endproc
.LFE3048:
	.size	disk_1300.62721, .-disk_1300.62721
	.section	.text.disk_1310.63040,"ax",@progbits
	.type	disk_1310.63040, @function
disk_1310.63040:
.LFB3058:
	.loc 24 302 0
	.cfi_startproc
.LVL678:
	pushl	%ebp
.LCFI127:
	.cfi_def_cfa_offset 8
	pushl	%edi
.LCFI128:
	.cfi_def_cfa_offset 12
	pushl	%esi
.LCFI129:
	.cfi_def_cfa_offset 16
	pushl	%ebx
.LCFI130:
	.cfi_def_cfa_offset 20
	subl	$32, %esp
.LCFI131:
	.cfi_def_cfa_offset 52
	movl	%eax, %edi
	.cfi_offset 3, -20
	.cfi_offset 6, -16
	.cfi_offset 7, -12
	.cfi_offset 5, -8
	.loc 24 306 0
	movl	%edx, 24(%esp)
	.loc 24 307 0
	movb	$16, 30(%esp)
.LBB8314:
.LBB8315:
	.loc 25 330 0
#APP
# 330 "src/block.c" 1
	movw %SS, %dx
# 0 "" 2
.LVL679:
#NO_APP
.LBE8315:
.LBB8316:
.LBB8317:
.LBB8318:
.LBB8319:
	.loc 10 253 0
	movl	$64, %eax
.LVL680:
#APP
# 253 "src/biosvar.h" 1
	movw %ax, %ES
# 0 "" 2
#NO_APP
.LBB8320:
#APP
# 253 "src/biosvar.h" 1
	movw %ES:14, %bx
# 0 "" 2
#NO_APP
	movw	%bx, 10(%esp)
.LBE8320:
.LBE8319:
.LBE8318:
	.loc 6 167 0
	leal	12(%esp), %eax
	movzwl	%dx, %edx
.LVL681:
	movl	$__send_disk_op.11050, %ecx
.LVL682:
#APP
# 167 "src/stacks.c" 1
	movw %ss, %si
movl %esp, %ebp
movw %bx, %ds
movw %bx, %ss
movl $872, %esp
calll *%ecx
movw %si, %ds
movw %si, %ss
movl %ebp, %esp
# 0 "" 2
.LVL683:
#NO_APP
.LBE8317:
.LBE8316:
.LBE8314:
.LBB8321:
.LBB8322:
	.loc 24 26 0
	cmpb	$0, 20(%edi)
	js	.L395
.LBB8323:
	.loc 24 27 0
	movl	$64, %edx
.LVL684:
#APP
# 27 "src/disk.c" 1
	movw %dx, %ES
# 0 "" 2
# 27 "src/disk.c" 1
	movb %al, %ES:65
# 0 "" 2
.LVL685:
#NO_APP
	jmp	.L396
.LVL686:
.L395:
.LBE8323:
.LBB8324:
	.loc 24 29 0
	movl	$64, %ebx
#APP
# 29 "src/disk.c" 1
	movw %bx, %ES
# 0 "" 2
# 29 "src/disk.c" 1
	movb %al, %ES:116
# 0 "" 2
.LVL687:
#NO_APP
.L396:
.LBE8324:
	.loc 24 30 0
	testb	%al, %al
	je	.L397
.LBB8325:
.LBB8326:
.LBB8327:
.LBB8328:
	.loc 14 90 0
	movb	%al, 29(%edi)
.LBB8329:
.LBB8330:
	.loc 14 60 0
	orw	$1, 36(%edi)
	jmp	.L399
.L397:
.LBE8330:
.LBE8329:
.LBE8328:
.LBE8327:
.LBE8326:
.LBE8325:
.LBB8331:
.LBB8332:
	.loc 14 77 0
	movb	$0, 29(%edi)
.LBB8333:
.LBB8334:
	.loc 14 62 0
	andw	$-2, 36(%edi)
.L399:
.LBE8334:
.LBE8333:
.LBE8332:
.LBE8331:
.LBE8322:
.LBE8321:
	.loc 24 310 0
	addl	$32, %esp
	popl	%ebx
	popl	%esi
	popl	%edi
.LVL688:
	popl	%ebp
	ret
	.cfi_endproc
.LFE3058:
	.size	disk_1310.63040, .-disk_1310.63040
	.section	.text.disk_1346.63275,"ax",@progbits
	.type	disk_1346.63275, @function
disk_1346.63275:
.LFB3072:
	.loc 24 463 0
	.cfi_startproc
.LVL689:
	pushl	%ebp
.LCFI132:
	.cfi_def_cfa_offset 8
	pushl	%edi
.LCFI133:
	.cfi_def_cfa_offset 12
	pushl	%esi
.LCFI134:
	.cfi_def_cfa_offset 16
	pushl	%ebx
.LCFI135:
	.cfi_def_cfa_offset 20
	subl	$44, %esp
.LCFI136:
	.cfi_def_cfa_offset 64
	movl	%eax, %ebp
	.cfi_offset 3, -20
	.cfi_offset 6, -16
	.cfi_offset 7, -12
	.cfi_offset 5, -8
	.loc 24 464 0
	movb	20(%eax), %al
.LVL690:
	cmpb	$-33, %al
	ja	.L401
.LBB8335:
.LBB8336:
	.loc 24 26 0
	testb	%al, %al
	js	.L402
.LBB8337:
	.loc 24 27 0
	movl	$64, %eax
#APP
# 27 "src/disk.c" 1
	movw %ax, %ES
# 0 "" 2
#NO_APP
	movb	$-78, %al
#APP
# 27 "src/disk.c" 1
	movb %al, %ES:65
# 0 "" 2
#NO_APP
	jmp	.L403
.L402:
.LBE8337:
.LBB8338:
	.loc 24 29 0
	movl	$64, %eax
#APP
# 29 "src/disk.c" 1
	movw %ax, %ES
# 0 "" 2
#NO_APP
	movb	$-78, %al
#APP
# 29 "src/disk.c" 1
	movb %al, %ES:116
# 0 "" 2
#NO_APP
.L403:
.LBE8338:
.LBB8339:
.LBB8340:
.LBB8341:
.LBB8342:
	.loc 14 90 0
	movb	$-78, 29(%ebp)
	jmp	.L416
.L401:
.LBE8342:
.LBE8341:
.LBE8340:
.LBE8339:
.LBE8336:
.LBE8335:
	.loc 24 470 0
	movzbl	%al, %eax
.LBB8343:
.LBB8344:
	.loc 10 253 0
	movl	$64, %edx
.LVL691:
#APP
# 253 "src/biosvar.h" 1
	movw %dx, %ES
# 0 "" 2
#NO_APP
.LBB8345:
#APP
# 253 "src/biosvar.h" 1
	movw %ES:14, %cx
# 0 "" 2
.LVL692:
#NO_APP
.LBE8345:
.LBE8344:
.LBE8343:
	.loc 24 471 0
#APP
# 471 "src/disk.c" 1
	movw %cx, %ES
# 0 "" 2
#NO_APP
.LBB8346:
#APP
# 471 "src/disk.c" 1
	movb %ES:118(%eax), %al
# 0 "" 2
.LVL693:
#NO_APP
.LBE8346:
.LBB8347:
.LBB8348:
.LBB8349:
.LBB8350:
.LBB8351:
.LBB8352:
.LBB8353:
.LBB8354:
	.loc 14 60 0
	movl	$38, (%esp)
.LBE8354:
.LBE8353:
.LBE8352:
.LBE8351:
.LBE8350:
.LBE8349:
.LBE8348:
.LBE8347:
	.loc 24 472 0
	testb	%al, %al
	je	.L406
.LBB8357:
.LBB8356:
.LBB8355:
	.loc 24 29 0
#APP
# 29 "src/disk.c" 1
	movw %dx, %ES
# 0 "" 2
#NO_APP
	jmp	.L417
.L406:
.LBE8355:
.LBE8356:
.LBE8357:
.LBB8358:
.LBB8359:
	.loc 16 149 0
	leal	6(%esp), %eax
.LVL694:
	movl	(%esp), %edx
.LVL695:
.L414:
	decl	%edx
	movb	$0, (%eax,%edx)
	.loc 16 148 0
	testl	%edx, %edx
	jne	.L414
	movl	%edx, (%esp)
.LBE8359:
.LBE8358:
	.loc 24 483 0
	movb	$82, 35(%esp)
	.loc 24 484 0
	movb	20(%ebp), %dl
.LVL696:
	movb	%dl, 26(%esp)
.LBB8360:
.LBB8361:
	.loc 16 53 0
#APP
# 53 "src/util.c" 1
	movw %CS, 40(%esp)
# 0 "" 2
	.loc 16 56 0
#NO_APP
	movl	$irq_trampoline_0x15, %edx
	movw	%dx, 38(%esp)
.LBB8362:
.LBB8363:
	.loc 16 23 0
#APP
# 23 "src/util.c" 1
	calll __call16
cli
cld
# 0 "" 2
.LVL697:
#NO_APP
.LBE8363:
.LBE8362:
.LBE8361:
.LBE8360:
	.loc 24 487 0
	cmpb	$0, 35(%esp)
	jne	.L407
	testb	$1, 42(%esp)
	je	.L408
.L407:
.LBB8364:
.LBB8365:
	.loc 24 26 0
	cmpb	$0, 20(%ebp)
	js	.L409
.LBB8366:
	.loc 24 27 0
	movl	$64, %eax
.LVL698:
#APP
# 27 "src/disk.c" 1
	movw %ax, %ES
# 0 "" 2
#NO_APP
	movb	$-79, %al
#APP
# 27 "src/disk.c" 1
	movb %al, %ES:65
# 0 "" 2
#NO_APP
	jmp	.L410
.LVL699:
.L409:
.LBE8366:
.LBB8367:
	.loc 24 29 0
	movl	$64, %eax
.LVL700:
#APP
# 29 "src/disk.c" 1
	movw %ax, %ES
# 0 "" 2
.LVL701:
#NO_APP
.L417:
	movb	$-79, %al
.LVL702:
#APP
# 29 "src/disk.c" 1
	movb %al, %ES:116
# 0 "" 2
#NO_APP
.L410:
.LBE8367:
.LBB8368:
.LBB8369:
.LBB8370:
.LBB8371:
	.loc 14 90 0
	movb	$-79, 29(%ebp)
.LVL703:
.L416:
.LBB8372:
.LBB8373:
	.loc 14 60 0
	orw	$1, 36(%ebp)
	jmp	.L413
.LVL704:
.L408:
.LBE8373:
.LBE8372:
.LBE8371:
.LBE8370:
.LBE8369:
.LBE8368:
.LBE8365:
.LBE8364:
.LBB8374:
.LBB8375:
	.loc 24 26 0
	cmpb	$0, 20(%ebp)
	js	.L411
.LBB8376:
	.loc 24 27 0
	movl	$64, %eax
.LVL705:
#APP
# 27 "src/disk.c" 1
	movw %ax, %ES
# 0 "" 2
#NO_APP
	xorl	%eax, %eax
	movl	(%esp), %edx
#APP
# 27 "src/disk.c" 1
	movb %al, %ES:65(%edx)
# 0 "" 2
#NO_APP
	jmp	.L412
.LVL706:
.L411:
.LBE8376:
.LBB8377:
	.loc 24 29 0
	movl	$64, %eax
.LVL707:
#APP
# 29 "src/disk.c" 1
	movw %ax, %ES
# 0 "" 2
#NO_APP
	xorl	%eax, %eax
	movl	(%esp), %edx
#APP
# 29 "src/disk.c" 1
	movb %al, %ES:116(%edx)
# 0 "" 2
#NO_APP
.L412:
.LBE8377:
.LBB8378:
.LBB8379:
	.loc 14 77 0
	movb	$0, 29(%ebp)
.LBB8380:
.LBB8381:
	.loc 14 62 0
	andw	$-2, 36(%ebp)
.LVL708:
.L413:
.LBE8381:
.LBE8380:
.LBE8379:
.LBE8378:
.LBE8375:
.LBE8374:
	.loc 24 492 0
	addl	$44, %esp
	popl	%ebx
	popl	%esi
	popl	%edi
	popl	%ebp
.LVL709:
	ret
	.cfi_endproc
.LFE3072:
	.size	disk_1346.63275, .-disk_1346.63275
	.section	.text.handle_76,"ax",@progbits
.globl handle_76
	.type	handle_76, @function
handle_76:
.LFB3088:
	.loc 24 857 0
	.cfi_startproc
.LBB8382:
	.loc 24 859 0
	movl	$64, %eax
#APP
# 859 "src/disk.c" 1
	movw %ax, %ES
# 0 "" 2
#NO_APP
	movb	$-1, %al
#APP
# 859 "src/disk.c" 1
	movb %al, %ES:142
# 0 "" 2
#NO_APP
.LBE8382:
.LBB8383:
.LBB8384:
.LBB8385:
	.loc 2 83 0
	movb	$32, %al
#APP
# 83 "src/ioport.h" 1
	outb %al, $160
# 0 "" 2
#NO_APP
.LBE8385:
.LBE8384:
.LBB8386:
.LBB8387:
.LBB8388:
#APP
# 83 "src/ioport.h" 1
	outb %al, $32
# 0 "" 2
#NO_APP
.LBE8388:
.LBE8387:
.LBE8386:
.LBE8383:
	.loc 24 861 0
	ret
	.cfi_endproc
.LFE3088:
	.size	handle_76, .-handle_76
	.section	.text.T.2327,"ax",@progbits
	.type	T.2327, @function
T.2327:
.LFB3091:
	.loc 3 170 0
	.cfi_startproc
.LVL710:
	pushl	%ebx
.LCFI137:
	.cfi_def_cfa_offset 8
	subl	$12, %esp
.LCFI138:
	.cfi_def_cfa_offset 20
	.loc 3 174 0
	movb	$0, 11(%esp)
	leal	10(%esp), %ecx
.LVL711:
	.loc 3 176 0
	movl	$10, %ebx
	.cfi_offset 3, -8
.L422:
	xorl	%edx, %edx
	divl	%ebx
.LVL712:
	addl	$48, %edx
	movb	%dl, (%ecx)
	.loc 3 178 0
	testl	%eax, %eax
.LVL713:
	je	.L421
	.loc 3 180 0
	decl	%ecx
	jmp	.L422
.LVL714:
.L423:
.LBB8389:
.LBB8390:
.LBB8391:
.LBB8392:
.LBB8393:
.LBB8394:
.LBB8395:
	.loc 2 83 0
#APP
# 83 "src/ioport.h" 1
	outb %al, %dx
# 0 "" 2
#NO_APP
.LBE8395:
.LBE8394:
.LBE8393:
.LBE8392:
.LBE8391:
	.loc 3 151 0
	incl	%ecx
	jmp	.L425
.LVL715:
.L421:
.LBB8400:
.LBB8399:
.LBB8398:
.LBB8397:
.LBB8396:
	.loc 2 83 0
	movl	$1026, %edx
.L425:
.LBE8396:
.LBE8397:
.LBE8398:
.LBE8399:
.LBE8400:
	.loc 3 151 0
	movb	(%ecx), %al
.LVL716:
	testb	%al, %al
	jne	.L423
.LBE8390:
.LBE8389:
	.loc 3 183 0
	addl	$12, %esp
	popl	%ebx
	ret
	.cfi_endproc
.LFE3091:
	.size	T.2327, .-T.2327
	.section	.text.T.2329,"ax",@progbits
	.type	T.2329, @function
T.2329:
.LFB3093:
	.loc 3 237 0
	.cfi_startproc
.LVL717:
	pushl	%ebp
.LCFI139:
	.cfi_def_cfa_offset 8
	pushl	%edi
.LCFI140:
	.cfi_def_cfa_offset 12
	pushl	%esi
.LCFI141:
	.cfi_def_cfa_offset 16
	pushl	%ebx
.LCFI142:
	.cfi_def_cfa_offset 20
	subl	$8, %esp
.LCFI143:
	.cfi_def_cfa_offset 28
	movl	%eax, %esi
	.cfi_offset 3, -20
	.cfi_offset 6, -16
	.cfi_offset 7, -12
	.cfi_offset 5, -8
	movl	%edx, %ebx
.LVL718:
.L485:
.LBB8536:
.LBB8537:
	.loc 3 241 0
#APP
# 241 "src/output.c" 1
	movb %CS:(%esi), %al
# 0 "" 2
.LVL719:
#NO_APP
.LBE8537:
	.loc 3 242 0
	testb	%al, %al
	je	.L486
.LBB8538:
.LBB8539:
.LBB8540:
.LBB8541:
.LBB8542:
	.loc 2 83 0
	movl	$1026, %edx
.LVL720:
.LBE8542:
.LBE8541:
.LBE8540:
.LBE8539:
.LBE8538:
	.loc 3 244 0
	cmpb	$37, %al
	jne	.L488
	.loc 3 248 0
	leal	1(%esi), %edi
.LVL721:
	movl	$1, %edx
.LVL722:
	xorl	%ecx, %ecx
.LVL723:
	movl	%ebx, (%esp)
.LVL724:
.L433:
.LBB8543:
	.loc 3 252 0
#APP
# 252 "src/output.c" 1
	movb %CS:(%edi), %al
# 0 "" 2
.LVL725:
#NO_APP
.LBE8543:
	.loc 3 253 0
	leal	-48(%eax), %ebx
	cmpb	$9, %bl
	ja	.L430
	.loc 3 255 0
	cmpb	$48, %al
	jne	.L431
	testl	%ecx, %ecx
	jne	.L431
	xorl	%edx, %edx
.LVL726:
	jmp	.L432
.L431:
	.loc 3 258 0
	imull	$10, %ecx, %ecx
.LVL727:
	movsbl	%al,%eax
.LVL728:
	leal	-48(%ecx,%eax), %ecx
.LVL729:
.L432:
	.loc 3 259 0
	incl	%edi
.LVL730:
	jmp	.L433
.LVL731:
.L430:
	movl	(%esp), %ebx
.LVL732:
	.loc 3 261 0
	cmpb	$108, %al
.LVL733:
	jne	.L434
	.loc 3 263 0
	incl	%edi
	.loc 3 264 0
#APP
# 264 "src/output.c" 1
	movb %CS:(%edi), %al
# 0 "" 2
.LVL734:
#NO_APP
.L434:
	.loc 3 268 0
	cmpb	$112, %al
	je	.L440
	jg	.L444
	cmpb	$99, %al
	je	.L438
	jg	.L445
	cmpb	$37, %al
	je	.L436
	cmpb	$46, %al
	je	.L437
	jmp	.L435
.L445:
	cmpb	$100, %al
	je	.L439
	jmp	.L435
.L444:
	cmpb	$117, %al
	je	.L442
	cmpb	$120, %al
	je	.L443
	cmpb	$115, %al
	je	.L441
	jmp	.L435
.L436:
.LBB8544:
.LBB8545:
.LBB8546:
.LBB8547:
.LBB8548:
	.loc 2 83 0
	movl	$1026, %edx
.LVL735:
	movb	$37, %al
.LVL736:
	jmp	.L489
.LVL737:
.L439:
.LBE8548:
.LBE8547:
.LBE8546:
.LBE8545:
.LBE8544:
	.loc 3 273 0
	movl	(%ebx), %ecx
.LVL738:
	.loc 3 274 0
	testl	%ecx, %ecx
	jns	.L446
.LBB8549:
.LBB8550:
.LBB8551:
.LBB8552:
.LBB8553:
	.loc 2 83 0
	movl	$1026, %edx
.LVL739:
	movb	$45, %al
.LVL740:
#APP
# 83 "src/ioport.h" 1
	outb %al, %dx
# 0 "" 2
#NO_APP
.LBE8553:
.LBE8552:
.LBE8551:
.LBE8550:
.LBE8549:
	.loc 3 276 0
	negl	%ecx
.LVL741:
.L446:
	.loc 3 273 0
	addl	$4, %ebx
	.loc 3 278 0
	movl	%ecx, %eax
.LVL742:
	call	T.2327
.LVL743:
	jmp	.L487
.LVL744:
.L442:
	.loc 3 281 0
	leal	4(%ebx), %ebp
.LVL745:
	.loc 3 282 0
	movl	(%ebx), %eax
.LVL746:
	call	T.2327
.LVL747:
	movl	%edi, %esi
	movl	%ebp, %ebx
	jmp	.L429
.LVL748:
.L440:
.LBB8554:
.LBB8555:
.LBB8556:
.LBB8557:
.LBB8558:
	.loc 2 83 0
	movl	$1026, %edx
.LVL749:
	movb	$48, %al
.LVL750:
#APP
# 83 "src/ioport.h" 1
	outb %al, %dx
# 0 "" 2
#NO_APP
.LBE8558:
.LBE8557:
.LBE8556:
.LBE8555:
.LBE8554:
.LBB8559:
.LBB8560:
.LBB8561:
.LBB8562:
.LBB8563:
	movb	$120, %al
#APP
# 83 "src/ioport.h" 1
	outb %al, %dx
# 0 "" 2
#NO_APP
	xorl	%edx, %edx
.LVL751:
	movl	$8, %ecx
.LVL752:
.L443:
.LBE8563:
.LBE8562:
.LBE8561:
.LBE8560:
.LBE8559:
	.loc 3 292 0
	movl	(%ebx), %esi
.LVL753:
.LBB8564:
.LBB8565:
	.loc 3 200 0
	testl	%ecx, %ecx
	jne	.L447
	movl	%esi, %eax
.LVL754:
	movb	$1, %cl
.LVL755:
	jmp	.L448
.LVL756:
.L449:
.LBB8629:
	.loc 3 204 0
	incl	%ecx
.LVL757:
.L448:
	.loc 3 203 0
	shrl	$4, %eax
	jne	.L449
	jmp	.L450
.LVL758:
.L447:
.LBE8629:
	.loc 3 205 0
	testl	%edx, %edx
	je	.L450
	movl	%esi, %edx
.LVL759:
	movl	$1, %eax
.LVL760:
	jmp	.L451
.LVL761:
.L452:
.LBB8623:
	.loc 3 209 0
	incl	%eax
.LVL762:
.L451:
	.loc 3 208 0
	shrl	$4, %edx
	jne	.L452
	.loc 3 210 0
	cmpl	%eax, %ecx
	jbe	.L450
	.loc 3 211 0
	movl	%ecx, %edx
.LVL763:
	subl	%eax, %edx
	movl	%edx, 4(%esp)
	movl	%edx, %ebp
.LVL764:
.LBB8624:
.LBB8625:
.LBB8626:
.LBB8627:
.LBB8628:
	.loc 2 83 0
	movl	$1026, %edx
	jmp	.L453
.L454:
	movb	$32, %al
#APP
# 83 "src/ioport.h" 1
	outb %al, %dx
# 0 "" 2
#NO_APP
	decl	%ebp
.LVL765:
.L453:
.LBE8628:
.LBE8627:
.LBE8626:
.LBE8625:
.LBE8624:
	.loc 3 213 0
	testl	%ebp, %ebp
	jne	.L454
	.loc 3 212 0
	subl	4(%esp), %ecx
.LVL766:
.L450:
.LBE8623:
	.loc 3 218 0
	cmpl	$4, %ecx
	je	.L459
	jg	.L463
	cmpl	$2, %ecx
	je	.L457
	jg	.L458
	decl	%ecx
.LVL767:
	je	.L456
	jmp	.L455
.LVL768:
.L463:
	cmpl	$6, %ecx
	je	.L461
	jl	.L460
	cmpl	$7, %ecx
	je	.L462
.L455:
	.loc 3 219 0
	movl	%esi, %eax
.LVL769:
	shrl	$28, %eax
.LBB8616:
.LBB8617:
	.loc 3 189 0
	cmpl	$9, %eax
	ja	.L464
	.loc 3 190 0
	addl	$48, %eax
.LVL770:
	jmp	.L465
.LVL771:
.L464:
	.loc 3 192 0
	addl	$87, %eax
.LVL772:
.L465:
.LBB8618:
.LBB8619:
.LBB8620:
.LBB8621:
.LBB8622:
	.loc 2 83 0
	movl	$1026, %edx
.LVL773:
#APP
# 83 "src/ioport.h" 1
	outb %al, %dx
# 0 "" 2
.LVL774:
#NO_APP
.L462:
.LBE8622:
.LBE8621:
.LBE8620:
.LBE8619:
.LBE8618:
.LBE8617:
.LBE8616:
	.loc 3 220 0
	movl	%esi, %eax
.LVL775:
	shrl	$24, %eax
	andl	$15, %eax
.LBB8609:
.LBB8610:
	.loc 3 189 0
	cmpl	$9, %eax
	ja	.L466
	.loc 3 190 0
	addl	$48, %eax
.LVL776:
	jmp	.L467
.LVL777:
.L466:
	.loc 3 192 0
	addl	$87, %eax
.LVL778:
.L467:
.LBB8611:
.LBB8612:
.LBB8613:
.LBB8614:
.LBB8615:
	.loc 2 83 0
	movl	$1026, %edx
.LVL779:
#APP
# 83 "src/ioport.h" 1
	outb %al, %dx
# 0 "" 2
.LVL780:
#NO_APP
.L461:
.LBE8615:
.LBE8614:
.LBE8613:
.LBE8612:
.LBE8611:
.LBE8610:
.LBE8609:
	.loc 3 221 0
	movl	%esi, %eax
.LVL781:
	shrl	$20, %eax
	andl	$15, %eax
.LBB8602:
.LBB8603:
	.loc 3 189 0
	cmpl	$9, %eax
	ja	.L468
	.loc 3 190 0
	addl	$48, %eax
.LVL782:
	jmp	.L469
.LVL783:
.L468:
	.loc 3 192 0
	addl	$87, %eax
.LVL784:
.L469:
.LBB8604:
.LBB8605:
.LBB8606:
.LBB8607:
.LBB8608:
	.loc 2 83 0
	movl	$1026, %edx
.LVL785:
#APP
# 83 "src/ioport.h" 1
	outb %al, %dx
# 0 "" 2
.LVL786:
#NO_APP
.L460:
.LBE8608:
.LBE8607:
.LBE8606:
.LBE8605:
.LBE8604:
.LBE8603:
.LBE8602:
	.loc 3 222 0
	movl	%esi, %eax
.LVL787:
	shrl	$16, %eax
	andl	$15, %eax
.LBB8595:
.LBB8596:
	.loc 3 189 0
	cmpl	$9, %eax
	ja	.L470
	.loc 3 190 0
	addl	$48, %eax
.LVL788:
	jmp	.L471
.LVL789:
.L470:
	.loc 3 192 0
	addl	$87, %eax
.LVL790:
.L471:
.LBB8597:
.LBB8598:
.LBB8599:
.LBB8600:
.LBB8601:
	.loc 2 83 0
	movl	$1026, %edx
.LVL791:
#APP
# 83 "src/ioport.h" 1
	outb %al, %dx
# 0 "" 2
.LVL792:
#NO_APP
.L459:
.LBE8601:
.LBE8600:
.LBE8599:
.LBE8598:
.LBE8597:
.LBE8596:
.LBE8595:
	.loc 3 223 0
	movl	%esi, %eax
.LVL793:
	shrl	$12, %eax
	andl	$15, %eax
.LBB8588:
.LBB8589:
	.loc 3 189 0
	cmpl	$9, %eax
	ja	.L472
	.loc 3 190 0
	addl	$48, %eax
.LVL794:
	jmp	.L473
.LVL795:
.L472:
	.loc 3 192 0
	addl	$87, %eax
.LVL796:
.L473:
.LBB8590:
.LBB8591:
.LBB8592:
.LBB8593:
.LBB8594:
	.loc 2 83 0
	movl	$1026, %edx
.LVL797:
#APP
# 83 "src/ioport.h" 1
	outb %al, %dx
# 0 "" 2
.LVL798:
#NO_APP
.L458:
.LBE8594:
.LBE8593:
.LBE8592:
.LBE8591:
.LBE8590:
.LBE8589:
.LBE8588:
	.loc 3 224 0
	movl	%esi, %eax
.LVL799:
	shrl	$8, %eax
	andl	$15, %eax
.LBB8581:
.LBB8582:
	.loc 3 189 0
	cmpl	$9, %eax
	ja	.L474
	.loc 3 190 0
	addl	$48, %eax
.LVL800:
	jmp	.L475
.LVL801:
.L474:
	.loc 3 192 0
	addl	$87, %eax
.LVL802:
.L475:
.LBB8583:
.LBB8584:
.LBB8585:
.LBB8586:
.LBB8587:
	.loc 2 83 0
	movl	$1026, %edx
.LVL803:
#APP
# 83 "src/ioport.h" 1
	outb %al, %dx
# 0 "" 2
.LVL804:
#NO_APP
.L457:
.LBE8587:
.LBE8586:
.LBE8585:
.LBE8584:
.LBE8583:
.LBE8582:
.LBE8581:
	.loc 3 225 0
	movl	%esi, %eax
.LVL805:
	shrl	$4, %eax
	andl	$15, %eax
.LBB8574:
.LBB8575:
	.loc 3 189 0
	cmpl	$9, %eax
	ja	.L476
	.loc 3 190 0
	addl	$48, %eax
.LVL806:
	jmp	.L477
.LVL807:
.L476:
	.loc 3 192 0
	addl	$87, %eax
.LVL808:
.L477:
.LBB8576:
.LBB8577:
.LBB8578:
.LBB8579:
.LBB8580:
	.loc 2 83 0
	movl	$1026, %edx
.LVL809:
#APP
# 83 "src/ioport.h" 1
	outb %al, %dx
# 0 "" 2
.LVL810:
#NO_APP
.L456:
.LBE8580:
.LBE8579:
.LBE8578:
.LBE8577:
.LBE8576:
.LBE8575:
.LBE8574:
	.loc 3 226 0
	movl	%esi, %eax
.LVL811:
	andl	$15, %eax
.LBB8566:
.LBB8567:
	.loc 3 189 0
	cmpl	$9, %eax
	ja	.L478
	.loc 3 190 0
	addl	$48, %eax
.LVL812:
	jmp	.L479
.LVL813:
.L478:
	.loc 3 192 0
	addl	$87, %eax
.LVL814:
.L479:
.LBE8567:
.LBE8566:
.LBE8565:
.LBE8564:
	.loc 3 291 0
	addl	$4, %ebx
.LBB8632:
.LBB8631:
.LBB8630:
.LBB8573:
.LBB8568:
.LBB8569:
.LBB8570:
.LBB8571:
.LBB8572:
	.loc 2 83 0
	movl	$1026, %edx
.LVL815:
.L489:
#APP
# 83 "src/ioport.h" 1
	outb %al, %dx
# 0 "" 2
.LVL816:
#NO_APP
.L487:
	movl	%edi, %esi
.LVL817:
	jmp	.L429
.LVL818:
.L438:
.LBE8572:
.LBE8571:
.LBE8570:
.LBE8569:
.LBE8568:
.LBE8573:
.LBE8630:
.LBE8631:
.LBE8632:
	.loc 3 295 0
	leal	4(%ebx), %ecx
.LVL819:
.LBB8633:
.LBB8634:
.LBB8635:
.LBB8636:
.LBB8637:
	.loc 2 83 0
	movl	(%ebx), %eax
.LVL820:
	movl	$1026, %edx
.LVL821:
#APP
# 83 "src/ioport.h" 1
	outb %al, %dx
# 0 "" 2
#NO_APP
	movl	%edi, %esi
	movl	%ecx, %ebx
	jmp	.L429
.LVL822:
.L437:
.LBE8637:
.LBE8636:
.LBE8635:
.LBE8634:
.LBE8633:
.LBB8638:
	.loc 3 300 0
#APP
# 300 "src/output.c" 1
	movb %CS:1(%edi), %al
# 0 "" 2
.LVL823:
#NO_APP
.LBE8638:
	movl	%edi, %esi
	cmpb	$115, %al
	jne	.L429
.LVL824:
	.loc 3 303 0
	movl	(%ebx), %ecx
.LVL825:
.LBB8639:
.LBB8640:
.LBB8641:
.LBB8642:
.LBB8643:
.LBB8644:
.LBB8645:
	.loc 2 83 0
	movl	$1026, %edx
.LVL826:
	jmp	.L481
.LVL827:
.L482:
#APP
# 83 "src/ioport.h" 1
	outb %al, %dx
# 0 "" 2
#NO_APP
.LBE8645:
.LBE8644:
.LBE8643:
.LBE8642:
.LBE8641:
	.loc 3 151 0
	incl	%ecx
.LVL828:
.L481:
	movb	(%ecx), %al
.LVL829:
	testb	%al, %al
	jne	.L482
.LBE8640:
.LBE8639:
	.loc 3 302 0
	leal	1(%edi), %esi
	.loc 3 303 0
	addl	$4, %ebx
	jmp	.L429
.LVL830:
.L441:
	.loc 3 307 0
	movl	(%ebx), %ecx
.LVL831:
.LBB8646:
.LBB8647:
.LBB8648:
.LBB8650:
.LBB8651:
.LBB8652:
.LBB8653:
.LBB8654:
	.loc 2 83 0
	movl	$1026, %edx
.LVL832:
.L484:
.LBE8654:
.LBE8653:
.LBE8652:
.LBE8651:
.LBE8650:
.LBB8649:
	.loc 3 161 0
#APP
# 161 "src/output.c" 1
	movb %CS:(%ecx), %al
# 0 "" 2
.LVL833:
#NO_APP
.LBE8649:
	.loc 3 162 0
	testb	%al, %al
	jne	.L483
.LBE8648:
.LBE8647:
.LBE8646:
	.loc 3 307 0
	addl	$4, %ebx
	jmp	.L487
.L483:
.LBB8662:
.LBB8661:
.LBB8660:
.LBB8659:
.LBB8658:
.LBB8657:
.LBB8656:
.LBB8655:
	.loc 2 83 0
#APP
# 83 "src/ioport.h" 1
	outb %al, %dx
# 0 "" 2
#NO_APP
.LBE8655:
.LBE8656:
.LBE8657:
.LBE8658:
.LBE8659:
.LBE8660:
	.loc 3 160 0
	incl	%ecx
.LVL834:
	jmp	.L484
.LVL835:
.L435:
.LBE8661:
.LBE8662:
.LBB8663:
.LBB8664:
.LBB8665:
.LBB8666:
.LBB8667:
	.loc 2 83 0
	movl	$1026, %edx
.LVL836:
	movb	$37, %al
.LVL837:
.L488:
#APP
# 83 "src/ioport.h" 1
	outb %al, %dx
# 0 "" 2
.LVL838:
#NO_APP
.L429:
.LBE8667:
.LBE8666:
.LBE8665:
.LBE8664:
.LBE8663:
.LBE8536:
	.loc 3 240 0
	incl	%esi
	jmp	.L485
.LVL839:
.L486:
	.loc 3 316 0
	popl	%ecx
.LCFI144:
	.cfi_def_cfa_offset 24
.LVL840:
	popl	%ebx
.LCFI145:
	.cfi_def_cfa_offset 20
.LVL841:
	popl	%ebx
	popl	%esi
.LVL842:
	popl	%edi
	popl	%ebp
.LVL843:
	ret
	.cfi_endproc
.LFE3093:
	.size	T.2329, .-T.2329
	.section	.text.panic.1648,"ax",@progbits
	.type	panic.1648, @function
panic.1648:
.LFB337:
	.loc 3 320 0
	.cfi_startproc
.LVL844:
	.loc 3 319 0
	leal	8(%esp), %edx
.LBB8668:
	.loc 3 324 0
	movl	4(%esp), %eax
	call	T.2329
.LBE8668:
.LBB8669:
.LBB8670:
	.loc 8 13 0
#APP
# 13 "src/util.h" 1
	cli
# 0 "" 2
#NO_APP
.L491:
.LBE8670:
.LBE8669:
.LBB8671:
.LBB8672:
	.loc 8 46 0
#APP
# 46 "src/util.h" 1
	hlt
# 0 "" 2
#NO_APP
	jmp	.L491
.LBE8672:
.LBE8671:
	.cfi_endproc
.LFE337:
	.size	panic.1648, .-panic.1648
	.section	.text.__dprintf.1656,"ax",@progbits
	.type	__dprintf.1656, @function
__dprintf.1656:
.LFB338:
	.loc 3 337 0
	.cfi_startproc
.LVL845:
	.loc 3 336 0
	leal	8(%esp), %edx
	.loc 3 352 0
	movl	4(%esp), %eax
	call	T.2329
	.loc 3 355 0
	ret
	.cfi_endproc
.LFE338:
	.size	__dprintf.1656, .-__dprintf.1656
	.section	.rodata.str1.1
.LC3:
	.string	"  NULL\n"
.LC4:
	.string	"   a=%08x  b=%08x  c=%08x  d=%08x ds=%04x es=%04x ss=%04x\n"
.LC5:
	.string	"  si=%08x di=%08x bp=%08x sp=%08x cs=%04x ip=%04x  f=%04x\n"
	.section	.text.dump_regs.7898,"ax",@progbits
	.type	dump_regs.7898, @function
dump_regs.7898:
.LFB343:
	.loc 3 438 0
	.cfi_startproc
.LVL846:
	pushl	%ebx
.LCFI146:
	.cfi_def_cfa_offset 8
	movl	%eax, %ebx
	.cfi_offset 3, -8
	.loc 3 439 0
	testl	%eax, %eax
	jne	.L496
	.loc 3 440 0
	pushl	$.LC3
.LCFI147:
	.cfi_def_cfa_offset 12
	.cfi_escape 0x2e,0x4
	call	__dprintf.1656
.LVL847:
	popl	%eax
.LCFI148:
	.cfi_def_cfa_offset 8
	.loc 3 441 0
	jmp	.L498
.LVL848:
.L496:
.LBB8673:
	.loc 3 443 0
#APP
# 443 "src/output.c" 1
	movw %SS, %ax
# 0 "" 2
.LVL849:
#NO_APP
.LBE8673:
	movzwl	%ax, %eax
.LVL850:
	pushl	%eax
.LCFI149:
	.cfi_def_cfa_offset 12
	movzwl	2(%ebx), %eax
.LVL851:
	pushl	%eax
.LCFI150:
	.cfi_def_cfa_offset 16
	movzwl	(%ebx), %eax
	pushl	%eax
.LCFI151:
	.cfi_def_cfa_offset 20
	pushl	20(%ebx)
.LCFI152:
	.cfi_def_cfa_offset 24
	pushl	24(%ebx)
.LCFI153:
	.cfi_def_cfa_offset 28
	pushl	16(%ebx)
.LCFI154:
	.cfi_def_cfa_offset 32
	pushl	28(%ebx)
.LCFI155:
	.cfi_def_cfa_offset 36
	pushl	$.LC4
.LCFI156:
	.cfi_def_cfa_offset 40
	.cfi_escape 0x2e,0x20
	call	__dprintf.1656
	addl	$32, %esp
.LCFI157:
	.cfi_def_cfa_offset 8
	.loc 3 446 0
	movzwl	36(%ebx), %eax
	pushl	%eax
.LCFI158:
	.cfi_def_cfa_offset 12
	movzwl	32(%ebx), %eax
	pushl	%eax
.LCFI159:
	.cfi_def_cfa_offset 16
	movzwl	34(%ebx), %eax
	pushl	%eax
.LCFI160:
	.cfi_def_cfa_offset 20
	leal	38(%ebx), %eax
	pushl	%eax
.LCFI161:
	.cfi_def_cfa_offset 24
	pushl	12(%ebx)
.LCFI162:
	.cfi_def_cfa_offset 28
	pushl	4(%ebx)
.LCFI163:
	.cfi_def_cfa_offset 32
	pushl	8(%ebx)
.LCFI164:
	.cfi_def_cfa_offset 36
	pushl	$.LC5
.LCFI165:
	.cfi_def_cfa_offset 40
	call	__dprintf.1656
	addl	$32, %esp
.LCFI166:
	.cfi_def_cfa_offset 8
.L498:
	.loc 3 449 0
	popl	%ebx
.LVL852:
	ret
	.cfi_endproc
.LFE343:
	.size	dump_regs.7898, .-dump_regs.7898
	.section	.rodata.str1.1
.LC6:
	.string	"enter %s:\n"
	.section	.text.handle_05,"ax",@progbits
.globl handle_05
	.type	handle_05, @function
handle_05:
.LFB79:
	.loc 1 44 0
	.cfi_startproc
.LVL853:
	subl	$4, %esp
.LCFI167:
	.cfi_def_cfa_offset 8
.LBB8674:
.LBB8675:
	.loc 3 464 0
	pushl	$__func__.2094
.LCFI168:
	.cfi_def_cfa_offset 12
	pushl	$.LC6
.LCFI169:
	.cfi_def_cfa_offset 16
	movl	%eax, 8(%esp)
.LVL854:
	.cfi_escape 0x2e,0x8
	call	__dprintf.1656
	.loc 3 465 0
	movl	8(%esp), %eax
.LBE8675:
.LBE8674:
	.loc 1 46 0
	addl	$12, %esp
.LBB8677:
.LBB8676:
	.loc 3 465 0
	jmp	dump_regs.7898
.LCFI170:
	.cfi_def_cfa_offset 8
.LBE8676:
.LBE8677:
	.cfi_endproc
.LFE79:
	.size	handle_05, .-handle_05
	.section	.rodata.str1.1
.LC7:
	.string	"KBD: int09 handler: AL=0\n"
.LC8:
	.string	"KBD: int09h_handler(): unknown scancode read: 0x%02x!\n"
.LC9:
	.string	"KBD: scancode & asciicode are zero?\n"
	.section	.text.__process_key.20381,"ax",@progbits
	.type	__process_key.20381, @function
__process_key.20381:
.LFB916:
	.loc 11 386 0
	.cfi_startproc
.LVL855:
	pushl	%ebp
.LCFI171:
	.cfi_def_cfa_offset 8
	pushl	%edi
.LCFI172:
	.cfi_def_cfa_offset 12
	pushl	%esi
.LCFI173:
	.cfi_def_cfa_offset 16
	pushl	%ebx
.LCFI174:
	.cfi_def_cfa_offset 20
	subl	$24, %esp
.LCFI175:
	.cfi_def_cfa_offset 44
	.loc 11 387 0
	movl	$64, %ecx
#APP
# 387 "src/kbd.c" 1
	movw %cx, %ES
# 0 "" 2
#NO_APP
.LBB8678:
#APP
# 387 "src/kbd.c" 1
	movb %ES:23, %dl
# 0 "" 2
.LVL856:
#NO_APP
.LBE8678:
	.loc 11 388 0
#APP
# 388 "src/kbd.c" 1
	movw %cx, %ES
# 0 "" 2
#NO_APP
.LBB8679:
#APP
# 388 "src/kbd.c" 1
	movb %ES:24, %bl
# 0 "" 2
#NO_APP
	movl	%ebx, %esi
	.cfi_offset 3, -20
	.cfi_offset 6, -16
	.cfi_offset 7, -12
	.cfi_offset 5, -8
.LVL857:
.LBE8679:
	.loc 11 389 0
#APP
# 389 "src/kbd.c" 1
	movw %cx, %ES
# 0 "" 2
#NO_APP
.LBB8680:
#APP
# 389 "src/kbd.c" 1
	movb %ES:150, %bl
# 0 "" 2
.LVL858:
#NO_APP
.LBE8680:
	.loc 11 391 0
	movzbl	%bl, %edi
	movl	%edi, 16(%esp)
	andl	$1, %edi
	je	.L502
	.loc 11 393 0
	andl	$127, %eax
.LVL859:
	cmpl	$29, %eax
	je	.L544
	.loc 11 397 0
	andl	$-2, %ebx
.LVL860:
.LBB8681:
	.loc 11 398 0
#APP
# 398 "src/kbd.c" 1
	movw %cx, %ES
# 0 "" 2
# 398 "src/kbd.c" 1
	movb %bl, %ES:150
# 0 "" 2
#NO_APP
	jmp	.L544
.LVL861:
.L502:
.LBE8681:
	.loc 11 412 0
	cmpb	$-99, %al
	je	.L513
	ja	.L522
	cmpb	$54, %al
	je	.L508
	ja	.L523
	cmpb	$29, %al
	je	.L506
	cmpb	$42, %al
	je	.L507
	testb	%al, %al
	je	.L505
	jmp	.L504
.L523:
	cmpb	$58, %al
	je	.L510
	ja	.L524
	cmpb	$56, %al
	jne	.L504
	jmp	.L551
.L524:
	cmpb	$69, %al
	je	.L511
	cmpb	$70, %al
	jne	.L504
	jmp	.L552
.L522:
	cmpb	$-70, %al
	je	.L517
	ja	.L525
	cmpb	$-74, %al
	je	.L515
	cmpb	$-72, %al
	je	.L516
	cmpb	$-86, %al
	jne	.L504
	jmp	.L553
.L525:
	cmpb	$-58, %al
	je	.L519
	ja	.L526
	cmpb	$-59, %al
	jne	.L504
	jmp	.L554
.L526:
	cmpb	$-32, %al
	je	.L520
	cmpb	$-31, %al
	jne	.L504
	jmp	.L555
.L505:
.LBB8682:
	.loc 11 414 0
	pushl	$.LC7
.LCFI176:
	.cfi_def_cfa_offset 48
	.cfi_escape 0x2e,0x4
	call	__dprintf.1656
.LVL862:
	popl	%esi
.LCFI177:
	.cfi_def_cfa_offset 44
.LVL863:
	.loc 11 415 0
	jmp	.L544
.LVL864:
.L510:
	.loc 11 418 0
	xorl	$64, %edx
.LVL865:
	.loc 11 419 0
	orl	$64, %esi
.LVL866:
	.loc 11 420 0
	jmp	.L527
.LVL867:
.L517:
	.loc 11 422 0
	andl	$-65, %esi
.LVL868:
	.loc 11 423 0
	jmp	.L527
.LVL869:
.L507:
	.loc 11 426 0
	orl	$2, %edx
.LVL870:
	.loc 11 427 0
	jmp	.L527
.LVL871:
.L553:
	.loc 11 429 0
	andl	$-3, %edx
.LVL872:
	.loc 11 430 0
	jmp	.L527
.LVL873:
.L508:
	.loc 11 433 0
	orl	$1, %edx
.LVL874:
	.loc 11 434 0
	jmp	.L527
.LVL875:
.L515:
	.loc 11 436 0
	andl	$-2, %edx
.LVL876:
	.loc 11 437 0
	jmp	.L527
.LVL877:
.L506:
	.loc 11 440 0
	orl	$4, %edx
.LVL878:
	.loc 11 441 0
	testb	$2, 16(%esp)
	je	.L528
	.loc 11 442 0
	orl	$4, %ebx
.LVL879:
	jmp	.L527
.LVL880:
.L528:
	.loc 11 444 0
	orl	$1, %esi
.LVL881:
	jmp	.L527
.LVL882:
.L513:
	.loc 11 447 0
	andl	$-5, %edx
.LVL883:
	.loc 11 448 0
	testb	$2, 16(%esp)
	je	.L529
	.loc 11 449 0
	andl	$-5, %ebx
.LVL884:
	jmp	.L527
.LVL885:
.L529:
	.loc 11 451 0
	andl	$-2, %esi
.LVL886:
	jmp	.L527
.LVL887:
.L551:
	.loc 11 455 0
	orl	$8, %edx
.LVL888:
	.loc 11 456 0
	testb	$2, 16(%esp)
	je	.L530
	.loc 11 457 0
	orl	$8, %ebx
.LVL889:
	jmp	.L527
.LVL890:
.L530:
	.loc 11 459 0
	orl	$2, %esi
.LVL891:
	jmp	.L527
.LVL892:
.L516:
	.loc 11 462 0
	andl	$-9, %edx
.LVL893:
	.loc 11 463 0
	testb	$2, 16(%esp)
	je	.L531
	.loc 11 464 0
	andl	$-9, %ebx
.LVL894:
	jmp	.L527
.LVL895:
.L531:
	.loc 11 466 0
	andl	$-3, %esi
.LVL896:
	jmp	.L527
.LVL897:
.L511:
	.loc 11 470 0
	orl	$32, %esi
.LVL898:
	.loc 11 471 0
	xorl	$32, %edx
.LVL899:
	.loc 11 472 0
	jmp	.L527
.LVL900:
.L554:
	.loc 11 474 0
	andl	$-33, %esi
.LVL901:
	.loc 11 475 0
	jmp	.L527
.LVL902:
.L552:
	.loc 11 478 0
	orl	$16, %esi
.LVL903:
	.loc 11 479 0
	xorl	$16, %edx
.LVL904:
	.loc 11 480 0
	jmp	.L527
.LVL905:
.L519:
	.loc 11 482 0
	andl	$-17, %esi
.LVL906:
	.loc 11 483 0
	jmp	.L527
.LVL907:
.L520:
	.loc 11 487 0
	orl	$2, %ebx
.LVL908:
.LBB8683:
	.loc 11 488 0
#APP
# 488 "src/kbd.c" 1
	movw %cx, %ES
# 0 "" 2
# 488 "src/kbd.c" 1
	movb %bl, %ES:150(%edi)
# 0 "" 2
#NO_APP
	jmp	.L544
.LVL909:
.L555:
.LBE8683:
	.loc 11 492 0
	orl	$1, %ebx
.LVL910:
	.loc 11 493 0
	jmp	.L527
.LVL911:
.L504:
	.loc 11 496 0
	testb	%al, %al
	js	.L527
	.loc 11 499 0
	cmpb	$83, %al
	jne	.L533
	movl	%edx, %ecx
.LVL912:
	andl	$12, %ecx
	cmpl	$12, %ecx
	jne	.L534
.LBB8684:
	.loc 11 503 0
	movl	$64, %eax
.LVL913:
#APP
# 503 "src/kbd.c" 1
	movw %ax, %ES
# 0 "" 2
#NO_APP
	movl	$4660, %eax
#APP
# 503 "src/kbd.c" 1
	movw %ax, %ES:114
# 0 "" 2
#NO_APP
.LBE8684:
	.loc 11 504 0
	.cfi_escape 0x2e,0x0
	call	reset_vector
.LVL914:
.L533:
	.loc 11 506 0
	cmpb	$88, %al
	jbe	.L534
	.loc 11 507 0
	movzbl	%al, %eax
.LVL915:
	pushl	%eax
.LCFI178:
	.cfi_def_cfa_offset 48
	pushl	$.LC8
.LCFI179:
	.cfi_def_cfa_offset 52
	.cfi_escape 0x2e,0x8
	call	__dprintf.1656
.LVL916:
	popl	%ecx
.LCFI180:
	.cfi_def_cfa_offset 48
	popl	%ebx
.LCFI181:
	.cfi_def_cfa_offset 44
.LVL917:
	.loc 11 509 0
	jmp	.L544
.LVL918:
.L534:
	.loc 11 512 0
	movzbl	%al, %edi
.LVL919:
	imull	$10, %edi, %edi
.LVL920:
	leal	scan_to_scanascii.20379(%edi), %ecx
.LVL921:
	.loc 11 513 0
	movzbl	%dl, %ebp
	testl	$8, %ebp
	je	.L535
.LBB8685:
	.loc 11 514 0
#APP
# 514 "src/kbd.c" 1
	movw %CS:6(%ecx), %ax
# 0 "" 2
.LVL922:
#NO_APP
	jmp	.L545
.LVL923:
.L535:
.LBE8685:
	.loc 11 516 0
	testl	$4, %ebp
	je	.L537
.LBB8686:
	.loc 11 517 0
#APP
# 517 "src/kbd.c" 1
	movw %CS:4(%ecx), %ax
# 0 "" 2
.LVL924:
#NO_APP
	jmp	.L545
.LVL925:
.L537:
.LBE8686:
	.loc 11 519 0
	testb	$2, 16(%esp)
	je	.L538
	cmpb	$70, %al
.LVL926:
	jbe	.L538
	cmpb	$83, %al
	ja	.L538
.LBB8687:
	.loc 11 523 0
#APP
# 523 "src/kbd.c" 1
	movw %CS:scan_to_scanascii.20379(%edi), %ax
# 0 "" 2
.LVL927:
#NO_APP
.LBE8687:
	shrw	$8, %ax
.LVL928:
	movb	$-32, %cl
.LVL929:
	.loc 11 519 0
	jmp	.L542
.LVL930:
.L538:
	.loc 11 524 0
	andl	$3, %ebp
	je	.L539
.LBB8688:
	.loc 11 528 0
#APP
# 528 "src/kbd.c" 1
	movb %CS:8(%ecx), %al
# 0 "" 2
.LVL931:
#NO_APP
.LBE8688:
	testb	%dl, %al
	je	.L540
.LBB8689:
	.loc 11 529 0
#APP
# 529 "src/kbd.c" 1
	movw %CS:scan_to_scanascii.20379(%edi), %ax
# 0 "" 2
.LVL932:
#NO_APP
	jmp	.L545
.LVL933:
.L540:
.LBE8689:
.LBB8690:
	.loc 11 532 0
#APP
# 532 "src/kbd.c" 1
	movw %CS:2(%ecx), %ax
# 0 "" 2
.LVL934:
#NO_APP
	jmp	.L545
.LVL935:
.L539:
.LBE8690:
.LBB8691:
	.loc 11 537 0
#APP
# 537 "src/kbd.c" 1
	movb %CS:8(%ecx), %al
# 0 "" 2
.LVL936:
#NO_APP
.LBE8691:
	testb	%dl, %al
	je	.L541
.LBB8692:
	.loc 11 538 0
#APP
# 538 "src/kbd.c" 1
	movw %CS:2(%ecx), %ax
# 0 "" 2
.LVL937:
#NO_APP
	jmp	.L545
.LVL938:
.L541:
.LBE8692:
.LBB8693:
	.loc 11 541 0
#APP
# 541 "src/kbd.c" 1
	movw %CS:scan_to_scanascii.20379(%edi), %ax
# 0 "" 2
.LVL939:
#NO_APP
.L545:
.LBE8693:
	movb	%al, %cl
.LVL940:
	.loc 11 542 0
	shrw	$8, %ax
.LVL941:
	.loc 11 545 0
	testb	%cl, %cl
	jne	.L542
	testb	%al, %al
	jne	.L542
	.loc 11 546 0
	pushl	$.LC9
.LCFI182:
	.cfi_def_cfa_offset 48
	movb	%al, 16(%esp)
.LVL942:
	movb	%dl, 8(%esp)
.LVL943:
	movb	%cl, 12(%esp)
.LVL944:
	.cfi_escape 0x2e,0x4
	call	__dprintf.1656
	popl	%edx
.LCFI183:
	.cfi_def_cfa_offset 44
	movb	8(%esp), %cl
	movb	4(%esp), %dl
	movb	12(%esp), %al
.LVL945:
.L542:
.LBB8694:
.LBB8695:
	.loc 11 54 0
	movl	$64, %edi
#APP
# 54 "src/kbd.c" 1
	movw %di, %ES
# 0 "" 2
#NO_APP
.LBB8696:
#APP
# 54 "src/kbd.c" 1
	movw %ES:128, %bp
# 0 "" 2
#NO_APP
	movw	%bp, 16(%esp)
.LBE8696:
	.loc 11 55 0
#APP
# 55 "src/kbd.c" 1
	movw %di, %ES
# 0 "" 2
#NO_APP
.LBB8697:
#APP
# 55 "src/kbd.c" 1
	movw %ES:130, %bp
# 0 "" 2
#NO_APP
	movw	%bp, 20(%esp)
.LBE8697:
	.loc 11 57 0
#APP
# 57 "src/kbd.c" 1
	movw %di, %ES
# 0 "" 2
#NO_APP
.LBB8698:
#APP
# 57 "src/kbd.c" 1
	movw %ES:26, %bp
# 0 "" 2
#NO_APP
	movw	%bp, 22(%esp)
.LBE8698:
	.loc 11 58 0
#APP
# 58 "src/kbd.c" 1
	movw %di, %ES
# 0 "" 2
#NO_APP
.LBB8699:
#APP
# 58 "src/kbd.c" 1
	movw %ES:28, %di
# 0 "" 2
#NO_APP
	movw	%di, 2(%esp)
.LBE8699:
	.loc 11 61 0
	addl	$2, %edi
.LVL946:
	.loc 11 62 0
	cmpw	20(%esp), %di
	jb	.L543
	movl	16(%esp), %edi
.LVL947:
.L543:
	.loc 11 65 0
	cmpw	22(%esp), %di
	je	.L527
.LBB8700:
	.loc 11 68 0
	movl	$64, %ebp
#APP
# 68 "src/kbd.c" 1
	movw %bp, %ES
# 0 "" 2
#NO_APP
	movzwl	2(%esp), %ebp
#APP
# 68 "src/kbd.c" 1
	movb %cl, %ES:(%ebp)
# 0 "" 2
#NO_APP
.LBE8700:
.LBB8701:
	.loc 11 69 0
	movl	$64, %ecx
.LVL948:
#APP
# 69 "src/kbd.c" 1
	movw %cx, %ES
# 0 "" 2
# 69 "src/kbd.c" 1
	movb %al, %ES:1(%ebp)
# 0 "" 2
#NO_APP
.LBE8701:
.LBB8702:
	.loc 11 70 0
#APP
# 70 "src/kbd.c" 1
	movw %cx, %ES
# 0 "" 2
# 70 "src/kbd.c" 1
	movw %di, %ES:28
# 0 "" 2
.LVL949:
#NO_APP
.L527:
.LBE8702:
.LBE8695:
.LBE8694:
.LBE8682:
	.loc 11 550 0
	andl	$-3, %ebx
.LVL950:
.LBB8703:
	.loc 11 552 0
	movl	$64, %eax
.LVL951:
#APP
# 552 "src/kbd.c" 1
	movw %ax, %ES
# 0 "" 2
# 552 "src/kbd.c" 1
	movb %dl, %ES:23
# 0 "" 2
#NO_APP
.LBE8703:
.LBB8704:
	.loc 11 553 0
#APP
# 553 "src/kbd.c" 1
	movw %ax, %ES
# 0 "" 2
#NO_APP
	movl	%esi, %edx
.LVL952:
#APP
# 553 "src/kbd.c" 1
	movb %dl, %ES:24
# 0 "" 2
#NO_APP
.LBE8704:
.LBB8705:
	.loc 11 554 0
#APP
# 554 "src/kbd.c" 1
	movw %ax, %ES
# 0 "" 2
# 554 "src/kbd.c" 1
	movb %bl, %ES:150
# 0 "" 2
.LVL953:
#NO_APP
.L544:
.LBE8705:
	.loc 11 555 0
	addl	$24, %esp
	popl	%ebx
.LVL954:
	popl	%esi
.LVL955:
	popl	%edi
.LVL956:
	popl	%ebp
	ret
	.cfi_endproc
.LFE916:
	.size	__process_key.20381, .-__process_key.20381
	.section	.text.process_key.1707,"ax",@progbits
	.type	process_key.1707, @function
process_key.1707:
.LFB917:
	.loc 11 559 0
	.cfi_startproc
.LVL957:
	pushl	%edi
.LCFI184:
	.cfi_def_cfa_offset 8
	pushl	%esi
.LCFI185:
	.cfi_def_cfa_offset 12
	pushl	%ebx
.LCFI186:
	.cfi_def_cfa_offset 16
.LBB8706:
	.loc 11 567 0
	movzbl	%al, %eax
.LVL958:
	orb	$79, %ah
#APP
# 567 "src/kbd.c" 1
	pushl %ebp
sti
stc
int $21
pushfl
popl %ecx
cli
cld
popl %ebp
# 0 "" 2
.LVL959:
	.loc 11 568 0
#NO_APP
	andb	$1, %cl
.LVL960:
	je	.L558
	.cfi_offset 3, -16
	.cfi_offset 6, -12
	.cfi_offset 7, -8
.LBE8706:
	.loc 11 572 0
	movzbl	%al, %eax
.LVL961:
	.loc 11 573 0
	popl	%ebx
	popl	%esi
	popl	%edi
	.loc 11 572 0
	jmp	__process_key.20381
.LVL962:
.L558:
	.loc 11 573 0
	popl	%ebx
	popl	%esi
	popl	%edi
	ret
	.cfi_endproc
.LFE917:
	.size	process_key.1707, .-process_key.1707
	.section	.text.prockeys.51301,"ax",@progbits
	.type	prockeys.51301, @function
prockeys.51301:
.LFB2461:
	.loc 22 173 0
	.cfi_startproc
.LVL963:
	pushl	%ebx
.LCFI187:
	.cfi_def_cfa_offset 8
	movl	%eax, %ebx
	.cfi_offset 3, -8
	.loc 22 174 0
	cmpw	$255, %ax
	jbe	.L560
.LBB8707:
	.loc 22 175 0
	shrw	$8, %ax
.LVL964:
	.loc 22 176 0
	cmpb	$-31, %al
.LVL965:
	jne	.L561
	.loc 22 178 0
	movl	$225, %eax
.LVL966:
	call	process_key.1707
	.loc 22 179 0
	andl	$-128, %ebx
.LVL967:
	movb	%bl, %al
	orl	$29, %eax
	movzbl	%al, %eax
	call	process_key.1707
	.loc 22 180 0
	orl	$69, %ebx
	jmp	.L560
.LVL968:
.L561:
	.loc 22 183 0
	movzbl	%al, %eax
.LVL969:
	call	process_key.1707
.LVL970:
.L560:
.LBE8707:
	.loc 22 185 0
	movzbl	%bl, %eax
.LVL971:
	.loc 22 186 0
	popl	%ebx
	.loc 22 185 0
	jmp	process_key.1707
.LVL972:
	.cfi_endproc
.LFE2461:
	.size	prockeys.51301, .-prockeys.51301
	.section	.text.handle_key.51401,"ax",@progbits
	.type	handle_key.51401, @function
handle_key.51401:
.LFB2464:
	.loc 22 215 0
	.cfi_startproc
.LVL973:
	pushl	%ebp
.LCFI188:
	.cfi_def_cfa_offset 8
	pushl	%edi
.LCFI189:
	.cfi_def_cfa_offset 12
	pushl	%esi
.LCFI190:
	.cfi_def_cfa_offset 16
	pushl	%ebx
.LCFI191:
	.cfi_def_cfa_offset 20
	subl	$20, %esp
.LCFI192:
	.cfi_def_cfa_offset 40
	movl	%eax, %esi
	.cfi_offset 3, -20
	.cfi_offset 6, -16
	.cfi_offset 7, -12
	.cfi_offset 5, -8
.LBB8708:
.LBB8709:
	.loc 10 253 0
	movl	$64, %eax
.LVL974:
#APP
# 253 "src/biosvar.h" 1
	movw %ax, %ES
# 0 "" 2
#NO_APP
.LBB8710:
#APP
# 253 "src/biosvar.h" 1
	movw %ES:14, %ax
# 0 "" 2
#NO_APP
	movw	%ax, 8(%esp)
.LBE8710:
.LBE8709:
.LBE8708:
	.loc 22 221 0
#APP
# 221 "src/usb-hid.c" 1
	movw %ax, %ES
# 0 "" 2
#NO_APP
.LBB8711:
.LBB8712:
#APP
# 221 "src/usb-hid.c" 1
	movl %ES:290, %edx
# 0 "" 2
# 221 "src/usb-hid.c" 1
	movl %ES:294, %eax
# 0 "" 2
#NO_APP
.LBE8712:
.LBE8711:
	movl	%edx, 12(%esp)
	movl	%eax, 16(%esp)
	movb	13(%esp), %dl
	movl	$1, %edi
	xorl	%ebx, %ebx
.LVL975:
.LBB8713:
	.loc 22 227 0
	leal	12(%esp), %ebp
.LVL976:
.L572:
	movb	1(%ebp,%edi), %al
.LVL977:
	.loc 22 228 0
	testb	%al, %al
	jne	.L564
	jmp	.L588
.L590:
.LBB8714:
.LBB8715:
	.loc 22 192 0
	cmpb	$99, %al
	ja	.L566
.LBB8716:
	.loc 22 194 0
	movzbl	%al, %eax
.LVL978:
#APP
# 194 "src/usb-hid.c" 1
	movw %CS:KeyToScanCode.51294(%eax,%eax), %ax
# 0 "" 2
.LVL979:
#NO_APP
.LBE8716:
	.loc 22 195 0
	testw	%ax, %ax
	je	.L566
	.loc 22 196 0
	orb	$-128, %al
.LVL980:
	movzwl	%ax, %eax
	movb	%dl, (%esp)
	call	prockeys.51301
.LVL981:
	movb	(%esp), %dl
.LVL982:
.L566:
.LBE8715:
.LBE8714:
	.loc 22 235 0
	cmpl	$6, %edi
	je	.L567
	cmpb	$0, 2(%ebp,%edi)
	jne	.L568
.L567:
	movb	$-1, %dl
	jmp	.L568
.LVL983:
.L564:
	xorl	%ecx, %ecx
.LVL984:
.L571:
	.loc 22 240 0
	cmpb	%al, 2(%esi,%ecx)
	jne	.L569
	.loc 22 242 0
	movb	$0, 2(%esi,%ecx)
	.loc 22 243 0
	movb	%al, 14(%esp,%ebx)
	incl	%ebx
.LVL985:
	.loc 22 244 0
	jmp	.L568
.L569:
	.loc 22 231 0
	incl	%ecx
.LVL986:
	.loc 22 232 0
	cmpl	$6, %ecx
	jne	.L571
	jmp	.L590
.LVL987:
.L568:
	incl	%edi
.LBE8713:
	.loc 22 226 0
	cmpl	$7, %edi
	jne	.L572
.L588:
	movb	%dl, 13(%esp)
	.loc 22 248 0
	movb	12(%esp), %cl
.LVL988:
	movb	%cl, 11(%esp)
	movb	(%esi), %dl
.LVL989:
	notl	%edx
.LVL990:
	andl	%ecx, %edx
.LVL991:
	movl	$ModifierToScanCode.51295, 4(%esp)
	movl	$ModifierToScanCode.51295, %edi
	xorl	%ebp, %ebp
.LVL992:
	jmp	.L573
.LVL993:
.L575:
.LBB8717:
.LBB8718:
	.loc 22 205 0
	movzbl	%dl, %eax
.LVL994:
	btl	%ebp, %eax
	jnc	.L574
.LBB8719:
	.loc 22 207 0
#APP
# 207 "src/usb-hid.c" 1
	movw %CS:(%edi), %ax
# 0 "" 2
.LVL995:
#NO_APP
.LBE8719:
	orb	$-128, %al
	movzwl	%ax, %eax
	movb	%dl, (%esp)
	call	prockeys.51301
	.loc 22 208 0
	movl	$1, %eax
	movl	%ebp, %ecx
.LVL996:
	sall	%cl, %eax
	notl	%eax
	movb	(%esp), %dl
	andl	%eax, %edx
.LVL997:
.L574:
	.loc 22 204 0
	incl	%ebp
.LVL998:
	addl	$2, %edi
.LVL999:
.L573:
	testb	%dl, %dl
	jne	.L575
.LBE8718:
.LBE8717:
	.loc 22 251 0
	movb	11(%esp), %dl
.LVL1000:
	notl	%edx
.LVL1001:
	andb	(%esi), %dl
.LVL1002:
	xorl	%edi, %edi
.LVL1003:
.LBB8720:
.LBB8721:
	.loc 22 208 0
	movl	$1, %ebp
.LVL1004:
	jmp	.L576
.LVL1005:
.L578:
	.loc 22 205 0
	movzbl	%dl, %eax
.LVL1006:
	btl	%edi, %eax
	jnc	.L577
.LBB8722:
	.loc 22 207 0
	movl	4(%esp), %ecx
#APP
# 207 "src/usb-hid.c" 1
	movw %CS:(%ecx), %ax
# 0 "" 2
.LVL1007:
#NO_APP
.LBE8722:
	movzwl	%ax, %eax
.LVL1008:
	movb	%dl, (%esp)
	call	prockeys.51301
.LVL1009:
	.loc 22 208 0
	movl	%ebp, %eax
	movl	%edi, %ecx
.LVL1010:
	sall	%cl, %eax
	notl	%eax
	movb	(%esp), %dl
	andl	%eax, %edx
.LVL1011:
.L577:
	.loc 22 204 0
	incl	%edi
.LVL1012:
	addl	$2, 4(%esp)
.LVL1013:
.L576:
	testb	%dl, %dl
	jne	.L578
.LBE8721:
.LBE8720:
	.loc 22 252 0
	movb	(%esi), %al
.LVL1014:
	movb	%al, 12(%esp)
	movb	13(%esp), %al
	xorl	%edi, %edi
.LVL1015:
.L581:
.LBB8723:
	.loc 22 254 0
	movb	2(%esi,%edi), %dl
.LVL1016:
	.loc 22 255 0
	testb	%dl, %dl
	je	.L579
.LBB8724:
.LBB8725:
	.loc 22 192 0
	cmpb	$99, %dl
	ja	.L580
.LBB8726:
	.loc 22 194 0
	movzbl	%dl, %eax
.LVL1017:
#APP
# 194 "src/usb-hid.c" 1
	movw %CS:KeyToScanCode.51294(%eax,%eax), %ax
# 0 "" 2
.LVL1018:
#NO_APP
.LBE8726:
	.loc 22 195 0
	testw	%ax, %ax
	je	.L580
	.loc 22 196 0
	movzwl	%ax, %eax
.LVL1019:
	movb	%dl, (%esp)
	call	prockeys.51301
.LVL1020:
	movb	(%esp), %dl
.LVL1021:
.L580:
.LBE8725:
.LBE8724:
	.loc 22 259 0
	movb	%dl, 14(%esp,%ebx)
	incl	%ebx
.LVL1022:
	movb	$16, %al
.LVL1023:
.L579:
.LBE8723:
	.loc 22 253 0
	incl	%edi
.LVL1024:
	cmpl	$6, %edi
	jne	.L581
	movb	%al, 13(%esp)
	.loc 22 262 0
	cmpl	$5, %ebx
	ja	.L582
	.loc 22 263 0
	movb	$0, 14(%esp,%ebx)
	.loc 22 266 0
	testl	%ebx, %ebx
	je	.L583
.L582:
	.loc 22 267 0
	movb	13(%esp), %al
	testb	%al, %al
	jne	.L584
	.loc 22 268 0
	movb	13(%esp,%ebx), %al
.LBB8727:
.LBB8728:
	.loc 22 192 0
	cmpb	$99, %al
	ja	.L583
.LBB8729:
	.loc 22 194 0
	movzbl	%al, %eax
#APP
# 194 "src/usb-hid.c" 1
	movw %CS:KeyToScanCode.51294(%eax,%eax), %ax
# 0 "" 2
.LVL1025:
#NO_APP
.LBE8729:
	.loc 22 195 0
	testw	%ax, %ax
	je	.L583
	.loc 22 196 0
	movzwl	%ax, %eax
.LVL1026:
	call	prockeys.51301
.LVL1027:
	jmp	.L583
.LVL1028:
.L584:
.LBE8728:
.LBE8727:
	.loc 22 269 0
	cmpb	$-1, %al
	je	.L583
	.loc 22 270 0
	decl	%eax
	movb	%al, 13(%esp)
.LVL1029:
.L583:
.LBB8730:
	.loc 22 274 0
	movl	16(%esp), %eax
.LVL1030:
#APP
# 274 "src/usb-hid.c" 1
	movw 8(%esp), %ES
# 0 "" 2
#NO_APP
.LBB8731:
	movl	12(%esp), %edx
.LVL1031:
#APP
# 274 "src/usb-hid.c" 1
	movl %edx, %ES:290
# 0 "" 2
# 274 "src/usb-hid.c" 1
	movl %eax, %ES:294
# 0 "" 2
#NO_APP
.LBE8731:
.LBE8730:
	.loc 22 275 0
	addl	$20, %esp
	popl	%ebx
.LVL1032:
	popl	%esi
.LVL1033:
	popl	%edi
.LVL1034:
	popl	%ebp
	ret
	.cfi_endproc
.LFE2464:
	.size	handle_key.51401, .-handle_key.51401
	.section	.text.usb_check_key.51512,"ax",@progbits
	.type	usb_check_key.51512, @function
usb_check_key.51512:
.LFB2465:
	.loc 22 280 0
	.cfi_startproc
	pushl	%esi
.LCFI193:
	.cfi_def_cfa_offset 8
	pushl	%ebx
.LCFI194:
	.cfi_def_cfa_offset 12
	subl	$8, %esp
.LCFI195:
	.cfi_def_cfa_offset 20
.LBB8732:
	.loc 22 283 0
#APP
# 283 "src/usb-hid.c" 1
	movl %CS:keyboard_pipe, %esi
# 0 "" 2
.LVL1035:
#NO_APP
.LBE8732:
	.loc 22 284 0
	testl	%esi, %esi
	je	.L594
	.cfi_offset 3, -12
	.cfi_offset 6, -8
.L595:
.LBB8733:
	.loc 22 289 0
	movl	%esp, %edx
	movl	%esi, %eax
	call	usb_poll_intr.42677
	.loc 22 290 0
	testl	%eax, %eax
.LVL1036:
	jne	.L594
	.loc 22 292 0
	movl	%esp, %eax
.LVL1037:
	call	handle_key.51401
.LBE8733:
	.loc 22 293 0
	jmp	.L595
.LVL1038:
.L594:
	.loc 22 294 0
	popl	%eax
.LCFI196:
	.cfi_def_cfa_offset 16
.LVL1039:
	popl	%edx
.LCFI197:
	.cfi_def_cfa_offset 12
	popl	%ebx
	popl	%esi
.LVL1040:
	ret
	.cfi_endproc
.LFE2465:
	.size	usb_check_key.51512, .-usb_check_key.51512
	.section	.text.handle_08,"ax",@progbits
.globl handle_08
	.type	handle_08, @function
handle_08:
.LFB1186:
	.loc 7 466 0
	.cfi_startproc
	pushl	%edi
.LCFI198:
	.cfi_def_cfa_offset 8
	pushl	%esi
.LCFI199:
	.cfi_def_cfa_offset 12
	pushl	%ebx
.LCFI200:
	.cfi_def_cfa_offset 16
.LBB8734:
.LBB8735:
	.loc 5 606 0
	movl	$64, %edx
#APP
# 606 "src/floppy.c" 1
	movw %dx, %ES
# 0 "" 2
#NO_APP
.LBB8736:
#APP
# 606 "src/floppy.c" 1
	movb %ES:64, %al
# 0 "" 2
.LVL1041:
#NO_APP
.LBE8736:
	.loc 5 607 0
	testb	%al, %al
	je	.L597
	.cfi_offset 3, -16
	.cfi_offset 6, -12
	.cfi_offset 7, -8
	.loc 5 608 0
	decl	%eax
.LVL1042:
.LBB8737:
	.loc 5 609 0
#APP
# 609 "src/floppy.c" 1
	movw %dx, %ES
# 0 "" 2
# 609 "src/floppy.c" 1
	movb %al, %ES:64
# 0 "" 2
#NO_APP
.LBE8737:
	.loc 5 610 0
	testb	%al, %al
	jne	.L597
.LBB8738:
.LBB8739:
	.loc 2 93 0
	movl	$1010, %edx
#APP
# 93 "src/ioport.h" 1
	inb %dx, %al
# 0 "" 2
.LVL1043:
#NO_APP
.LBE8739:
.LBE8738:
.LBB8740:
.LBB8741:
	.loc 2 83 0
	andl	$207, %eax
.LVL1044:
#APP
# 83 "src/ioport.h" 1
	outb %al, %dx
# 0 "" 2
.LVL1045:
#NO_APP
.L597:
.LBE8741:
.LBE8740:
.LBE8735:
.LBE8734:
	.loc 7 471 0
	movl	$64, %edx
#APP
# 471 "src/clock.c" 1
	movw %dx, %ES
# 0 "" 2
#NO_APP
.LBB8742:
#APP
# 471 "src/clock.c" 1
	movl %ES:108, %eax
# 0 "" 2
.LVL1046:
#NO_APP
.LBE8742:
	.loc 7 472 0
	incl	%eax
.LVL1047:
	.loc 7 474 0
	cmpl	$1573039, %eax
	jbe	.L598
.LBB8743:
	.loc 7 477 0
#APP
# 477 "src/clock.c" 1
	movw %dx, %ES
# 0 "" 2
#NO_APP
.LBB8744:
#APP
# 477 "src/clock.c" 1
	movb %ES:112, %al
# 0 "" 2
.LVL1048:
#NO_APP
.LBE8744:
	incl	%eax
.LVL1049:
#APP
# 477 "src/clock.c" 1
	movb %al, %ES:112
# 0 "" 2
#NO_APP
	xorl	%eax, %eax
.LVL1050:
.L598:
.LBE8743:
.LBB8745:
	.loc 7 480 0
	movl	$64, %edx
#APP
# 480 "src/clock.c" 1
	movw %dx, %ES
# 0 "" 2
# 480 "src/clock.c" 1
	movl %eax, %ES:108
# 0 "" 2
#NO_APP
.LBE8745:
.LBB8746:
.LBB8747:
	.loc 22 416 0
	call	usb_check_key.51512
.LVL1051:
	.loc 22 417 0
	call	usb_check_mouse.51624
.LBE8747:
.LBE8746:
	.loc 7 486 0
	xorl	%eax, %eax
.LVL1052:
#APP
# 486 "src/clock.c" 1
	pushl %ebp
sti
stc
int $28
pushfl
popl %ecx
cli
cld
popl %ebp
# 0 "" 2
.LVL1053:
#NO_APP
.LBB8748:
.LBB8749:
.LBB8750:
	.loc 2 83 0
	movb	$32, %al
.LVL1054:
#APP
# 83 "src/ioport.h" 1
	outb %al, $32
# 0 "" 2
#NO_APP
.LBE8750:
.LBE8749:
.LBE8748:
	.loc 7 489 0
	popl	%ebx
	popl	%esi
	popl	%edi
	ret
	.cfi_endproc
.LFE1186:
	.size	handle_08, .-handle_08
	.section	.rodata.str1.1
.LC10:
	.string	"WARNING - Timeout at %s:%d!\n"
	.section	.text.await_not_bsy.14871,"ax",@progbits
	.type	await_not_bsy.14871, @function
await_not_bsy.14871:
.LFB701:
	.file 27 "src/ata.c"
	.loc 27 49 0
	.cfi_startproc
.LVL1055:
	pushl	%esi
.LCFI201:
	.cfi_def_cfa_offset 8
	pushl	%ebx
.LCFI202:
	.cfi_def_cfa_offset 12
	subl	$16, %esp
.LCFI203:
	.cfi_def_cfa_offset 28
	movl	%eax, %ebx
	.cfi_offset 3, -12
	.cfi_offset 6, -8
.LBB8751:
.LBB8752:
.LBB8753:
.LBB8754:
.LBB8755:
	.loc 7 134 0
#APP
# 134 "src/clock.c" 1
	movl %CS:cpu_khz, %ecx
# 0 "" 2
.LVL1056:
#NO_APP
.LBE8755:
.LBB8756:
.LBB8757:
	.loc 8 79 0
#APP
# 79 "src/util.h" 1
	rdtsc
# 0 "" 2
.LVL1057:
#NO_APP
	movl	%eax, (%esp)
	movl	%edx, 4(%esp)
.LBE8757:
.LBE8756:
	.loc 7 135 0
	movl	$32000, %esi
	movl	%ecx, %eax
	mull	%esi
	movl	%eax, 8(%esp)
	movl	%edx, 12(%esp)
	movl	(%esp), %eax
	movl	4(%esp), %edx
	addl	%eax, 8(%esp)
	adcl	%edx, 12(%esp)
.LBE8754:
.LBE8753:
.LBB8758:
.LBB8759:
.LBB8760:
	.loc 2 93 0
	addl	$7, %ebx
.LVL1058:
.L605:
	movl	%ebx, %edx
#APP
# 93 "src/ioport.h" 1
	inb %dx, %al
# 0 "" 2
.LVL1059:
#NO_APP
.LBE8760:
.LBE8759:
	.loc 27 36 0
	testb	%al, %al
	js	.L601
	.loc 27 37 0
	movzbl	%al, %eax
.LVL1060:
	jmp	.L602
.LVL1061:
.L601:
.LBB8761:
.LBB8762:
.LBB8763:
	.loc 8 79 0
#APP
# 79 "src/util.h" 1
	rdtsc
# 0 "" 2
.LVL1062:
#NO_APP
	movl	%eax, (%esp)
	movl	%edx, 4(%esp)
.LBE8763:
.LBE8762:
.LBE8761:
	.loc 27 38 0
	movl	8(%esp), %eax
	movl	12(%esp), %edx
	subl	%eax, (%esp)
	sbbl	%edx, 4(%esp)
	cmpl	$0, 4(%esp)
	jl	.L603
	jg	.L607
	cmpl	$0, (%esp)
	jbe	.L603
.L607:
.LBB8764:
.LBB8765:
	.loc 3 516 0
	pushl	$39
.LCFI204:
	.cfi_def_cfa_offset 32
	pushl	$__func__.14856
.LCFI205:
	.cfi_def_cfa_offset 36
	pushl	$.LC10
.LCFI206:
	.cfi_def_cfa_offset 40
	.cfi_escape 0x2e,0xc
	call	__dprintf.1656
.LVL1063:
	addl	$12, %esp
.LCFI207:
	.cfi_def_cfa_offset 28
	orl	$-1, %eax
	jmp	.L602
.LVL1064:
.L603:
.LBE8765:
.LBE8764:
.LBB8766:
.LBB8767:
.LBB8768:
.LBB8769:
	.loc 6 108 0
#APP
# 108 "src/stacks.c" 1
	sti
nop
rep ; nop
cli
cld

# 0 "" 2
#NO_APP
	jmp	.L605
.L602:
.LBE8769:
.LBE8768:
.LBE8767:
.LBE8766:
.LBE8758:
.LBE8752:
.LBE8751:
	.loc 27 51 0
	addl	$16, %esp
	popl	%ebx
	popl	%esi
	ret
	.cfi_endproc
.LFE701:
	.size	await_not_bsy.14871, .-await_not_bsy.14871
	.section	.text.ata_pio_transfer.15388,"ax",@progbits
	.type	ata_pio_transfer.15388, @function
ata_pio_transfer.15388:
.LFB711:
	.loc 27 298 0
	.cfi_startproc
.LVL1065:
	pushl	%ebp
.LCFI208:
	.cfi_def_cfa_offset 8
	pushl	%edi
.LCFI209:
	.cfi_def_cfa_offset 12
	pushl	%esi
.LCFI210:
	.cfi_def_cfa_offset 16
	pushl	%ebx
.LCFI211:
	.cfi_def_cfa_offset 20
	subl	$36, %esp
.LCFI212:
	.cfi_def_cfa_offset 56
	movl	%eax, %ebx
	.cfi_offset 3, -20
	.cfi_offset 6, -16
	.cfi_offset 7, -12
	.cfi_offset 5, -8
	movl	%edx, 20(%esp)
	movl	%ecx, 12(%esp)
.LBB8770:
	.loc 27 304 0
	movl	12(%eax), %eax
.LVL1066:
#APP
# 304 "src/ata.c" 1
	movl %CS:36(%eax), %eax
# 0 "" 2
.LVL1067:
#NO_APP
.LBE8770:
.LBB8771:
	.loc 27 305 0
#APP
# 305 "src/ata.c" 1
	movw %CS:-983040(%eax), %dx
# 0 "" 2
.LVL1068:
#NO_APP
	movw	%dx, 6(%esp)
.LBE8771:
.LBB8772:
	.loc 27 306 0
#APP
# 306 "src/ata.c" 1
	movw %CS:-983038(%eax), %si
# 0 "" 2
.LVL1069:
#NO_APP
.LBE8772:
	.loc 27 307 0
	movzwl	16(%ebx), %ebp
.LVL1070:
	.loc 27 308 0
	movl	8(%ebx), %eax
.LVL1071:
	movl	%eax, (%esp)
.LBB8773:
.LBB8774:
	.loc 26 155 0
	movl	$2, %ecx
.LVL1072:
	movl	12(%esp), %eax
	cltd
	idivl	%ecx
	movzwl	%ax, %ecx
	movl	%ecx, 16(%esp)
	movl	$0, 8(%esp)
.LBE8774:
.LBE8773:
.LBB8778:
.LBB8779:
.LBB8780:
.LBB8781:
	.loc 2 93 0
	addl	$2, %esi
.LVL1073:
	movw	%si, 26(%esp)
.LBE8781:
.LBE8780:
	.loc 27 67 0
	movzwl	6(%esp), %edx
	movl	%edx, 28(%esp)
.LBE8779:
.LBE8778:
	.loc 27 336 0
	leal	-1(%ebp), %eax
	movl	%eax, 32(%esp)
.LVL1074:
.L615:
	.loc 27 311 0
	cmpl	$0, 20(%esp)
	je	.L609
.LBB8785:
.LBB8777:
	.loc 26 154 0
	movl	(%esp), %eax
	shrl	$4, %eax
#APP
# 154 "src/farptr.h" 1
	movw %ax, %ES
# 0 "" 2
#NO_APP
.LBB8775:
.LBB8776:
	.loc 2 125 0
	movl	(%esp), %esi
.LVL1075:
	andl	$15, %esi
	movl	16(%esp), %ecx
.LVL1076:
	movw	6(%esp), %dx
#APP
# 125 "src/ioport.h" 1
	rep outsw %es:(%esi), (%dx)
# 0 "" 2
.LVL1077:
#NO_APP
	jmp	.L610
.LVL1078:
.L609:
.LBE8776:
.LBE8775:
.LBE8777:
.LBE8785:
.LBB8786:
.LBB8787:
	.loc 26 142 0
	movl	(%esp), %eax
	shrl	$4, %eax
#APP
# 142 "src/farptr.h" 1
	movw %ax, %ES
# 0 "" 2
#NO_APP
.LBB8788:
.LBB8789:
	.loc 2 112 0
	movl	(%esp), %edi
.LVL1079:
	andl	$15, %edi
	movl	16(%esp), %ecx
.LVL1080:
	movw	6(%esp), %dx
#APP
# 112 "src/ioport.h" 1
	rep insw (%dx), %es:(%edi)
# 0 "" 2
.LVL1081:
#NO_APP
.L610:
.LBE8789:
.LBE8788:
.LBE8787:
.LBE8786:
.LBB8790:
.LBB8784:
.LBB8783:
.LBB8782:
	.loc 2 93 0
	movw	26(%esp), %dx
#APP
# 93 "src/ioport.h" 1
	inb %dx, %al
# 0 "" 2
.LVL1082:
#NO_APP
.LBE8782:
.LBE8783:
	.loc 27 67 0
	movl	28(%esp), %eax
.LVL1083:
	call	await_not_bsy.14871
.LVL1084:
.LBE8784:
.LBE8790:
	.loc 27 329 0
	testl	%eax, %eax
.LVL1085:
	jns	.L611
	.loc 27 331 0
	subw	%bp, 16(%ebx)
.LVL1086:
	.loc 27 332 0
	jmp	.L612
.LVL1087:
.L611:
	.loc 27 335 0
	decl	%ebp
.LVL1088:
	.loc 27 336 0
	movl	8(%esp), %edx
	cmpl	%edx, 32(%esp)
	je	.L613
	incl	%edx
	movl	%edx, 8(%esp)
	.loc 27 339 0
	andl	$137, %eax
.LVL1089:
	cmpl	$8, %eax
	jne	.L614
	.loc 27 297 0
	movl	12(%esp), %eax
	addl	%eax, (%esp)
	jmp	.L615
.L614:
	.loc 27 342 0
	subw	%bp, 16(%ebx)
.LVL1090:
	movl	$-6, %eax
.LVL1091:
	.loc 27 343 0
	jmp	.L612
.LVL1092:
.L613:
	.loc 27 347 0
	andl	$169, %eax
.LVL1093:
	.loc 27 349 0
	cmpl	$0, 20(%esp)
	jne	.L616
	.loc 27 350 0
	andl	$-33, %eax
.L616:
	.loc 27 351 0
	testl	%eax, %eax
	je	.L612
	movl	$-7, %eax
.L612:
.LVL1094:
	.loc 27 357 0
	addl	$36, %esp
	popl	%ebx
.LVL1095:
	popl	%esi
.LVL1096:
	popl	%edi
.LVL1097:
	popl	%ebp
.LVL1098:
	ret
	.cfi_endproc
.LFE711:
	.size	ata_pio_transfer.15388, .-ata_pio_transfer.15388
	.section	.text.ndelay_await_not_bsy.14892,"ax",@progbits
	.type	ndelay_await_not_bsy.14892, @function
ndelay_await_not_bsy.14892:
.LFB704:
	.loc 27 73 0
	.cfi_startproc
.LVL1099:
	pushl	%esi
.LCFI213:
	.cfi_def_cfa_offset 8
	pushl	%ebx
.LCFI214:
	.cfi_def_cfa_offset 12
	subl	$8, %esp
.LCFI215:
	.cfi_def_cfa_offset 20
	movl	%eax, %ecx
.LBB8791:
.LBB8792:
	.loc 7 111 0
#APP
# 111 "src/clock.c" 1
	movl %CS:cpu_khz, %ebx
# 0 "" 2
.LVL1100:
#NO_APP
.LBE8792:
.LBB8793:
.LBB8794:
.LBB8795:
.LBB8796:
	.loc 8 79 0
#APP
# 79 "src/util.h" 1
	rdtsc
# 0 "" 2
.LVL1101:
#NO_APP
	movl	%eax, (%esp)
	movl	%edx, 4(%esp)
.LBE8796:
.LBE8795:
	.loc 7 96 0
	imull	$400, %ebx, %eax
	movl	$1000000, %ebx
	.cfi_offset 3, -12
	.cfi_offset 6, -8
.LVL1102:
	xorl	%edx, %edx
	divl	%ebx
	movl	%eax, %ebx
	xorl	%esi, %esi
.LVL1103:
	addl	(%esp), %ebx
.LVL1104:
	adcl	4(%esp), %esi
.LVL1105:
	jmp	.L619
.L620:
.LBB8797:
.LBB8798:
	.loc 8 36 0
#APP
# 36 "src/util.h" 1
	rep ; nop
# 0 "" 2
#NO_APP
.L619:
.LBE8798:
.LBE8797:
.LBB8799:
.LBB8800:
.LBB8801:
	.loc 8 79 0
#APP
# 79 "src/util.h" 1
	rdtsc
# 0 "" 2
#NO_APP
.LBE8801:
.LBE8800:
.LBE8799:
	.loc 7 97 0
	subl	%ebx, %eax
	sbbl	%esi, %edx
	cmpl	$0, %edx
	jl	.L620
	jg	.L623
	cmpl	$0, %eax
	jbe	.L620
.L623:
.LBE8794:
.LBE8793:
.LBE8791:
	.loc 27 75 0
	movzwl	%cx, %eax
.LVL1106:
	.loc 27 76 0
	popl	%ecx
.LCFI216:
	.cfi_def_cfa_offset 16
	popl	%ebx
.LCFI217:
	.cfi_def_cfa_offset 12
.LVL1107:
	popl	%ebx
	popl	%esi
.LVL1108:
	.loc 27 75 0
	jmp	await_not_bsy.14871
.LVL1109:
	.cfi_endproc
.LFE704:
	.size	ndelay_await_not_bsy.14892, .-ndelay_await_not_bsy.14892
	.section	.text.send_cmd.15132,"ax",@progbits
	.type	send_cmd.15132, @function
send_cmd.15132:
.LFB708:
	.loc 27 193 0
	.cfi_startproc
.LVL1110:
	pushl	%ebp
.LCFI218:
	.cfi_def_cfa_offset 8
	pushl	%edi
.LCFI219:
	.cfi_def_cfa_offset 12
	pushl	%esi
.LCFI220:
	.cfi_def_cfa_offset 16
	pushl	%ebx
.LCFI221:
	.cfi_def_cfa_offset 20
	subl	$4, %esp
.LCFI222:
	.cfi_def_cfa_offset 24
	movl	%edx, %esi
	.cfi_offset 3, -20
	.cfi_offset 6, -16
	.cfi_offset 7, -12
	.cfi_offset 5, -8
.LBB8802:
	.loc 27 194 0
#APP
# 194 "src/ata.c" 1
	movl %CS:36(%eax), %edx
# 0 "" 2
.LVL1111:
#NO_APP
.LBE8802:
.LBB8803:
	.loc 27 195 0
#APP
# 195 "src/ata.c" 1
	movb %CS:40(%eax), %cl
# 0 "" 2
#NO_APP
	movb	%cl, 3(%esp)
.LBE8803:
.LBB8804:
	.loc 27 196 0
#APP
# 196 "src/ata.c" 1
	movw %CS:-983040(%edx), %bx
# 0 "" 2
.LVL1112:
#NO_APP
.LBE8804:
	.loc 27 199 0
	movzwl	%bx, %ebp
	movl	%ebp, %eax
.LVL1113:
	call	await_not_bsy.14871
.LVL1114:
	.loc 27 200 0
	testl	%eax, %eax
.LVL1115:
	js	.L625
	.loc 27 203 0
	movb	5(%esi), %al
.LVL1116:
	cmpb	$1, 3(%esp)
	sbbl	%edi, %edi
	andl	$-16, %edi
	subl	$80, %edi
.LVL1117:
	andl	$79, %eax
	orl	%eax, %edi
.LVL1118:
	.loc 27 204 0
	leal	6(%ebx), %edx
.LBB8805:
.LBB8806:
	.loc 2 93 0
#APP
# 93 "src/ioport.h" 1
	inb %dx, %al
# 0 "" 2
#NO_APP
	movb	%al, %cl
.LBE8806:
.LBE8805:
.LBB8807:
.LBB8808:
	.loc 2 83 0
	movl	%edi, %eax
#APP
# 83 "src/ioport.h" 1
	outb %al, %dx
# 0 "" 2
#NO_APP
.LBE8808:
.LBE8807:
	.loc 27 206 0
	xorl	%edi, %ecx
	andb	$16, %cl
	je	.L628
	.loc 27 208 0
	movl	%ebp, %eax
	call	ndelay_await_not_bsy.14892
	.loc 27 209 0
	testl	%eax, %eax
.LVL1119:
	js	.L625
.L628:
	.loc 27 214 0
	movb	6(%esi), %cl
	movl	%ecx, %eax
.LVL1120:
	andl	$238, %eax
	cmpl	$36, %eax
	jne	.L629
.LBB8809:
.LBB8810:
	.loc 2 83 0
	movb	7(%esi), %al
	leal	1(%ebx), %edx
#APP
# 83 "src/ioport.h" 1
	outb %al, %dx
# 0 "" 2
#NO_APP
.LBE8810:
.LBE8809:
.LBB8811:
.LBB8812:
	movb	8(%esi), %al
	leal	2(%ebx), %edx
#APP
# 83 "src/ioport.h" 1
	outb %al, %dx
# 0 "" 2
#NO_APP
.LBE8812:
.LBE8811:
.LBB8813:
.LBB8814:
	movb	9(%esi), %al
	leal	3(%ebx), %edx
#APP
# 83 "src/ioport.h" 1
	outb %al, %dx
# 0 "" 2
#NO_APP
.LBE8814:
.LBE8813:
.LBB8815:
.LBB8816:
	movb	10(%esi), %al
	leal	4(%ebx), %edx
#APP
# 83 "src/ioport.h" 1
	outb %al, %dx
# 0 "" 2
#NO_APP
.LBE8816:
.LBE8815:
.LBB8817:
.LBB8818:
	movb	11(%esi), %al
	leal	5(%ebx), %edx
#APP
# 83 "src/ioport.h" 1
	outb %al, %dx
# 0 "" 2
#NO_APP
.L629:
.LBE8818:
.LBE8817:
.LBB8819:
.LBB8820:
	movb	(%esi), %al
	leal	1(%ebx), %edx
#APP
# 83 "src/ioport.h" 1
	outb %al, %dx
# 0 "" 2
#NO_APP
.LBE8820:
.LBE8819:
.LBB8821:
.LBB8822:
	movb	1(%esi), %al
	leal	2(%ebx), %edx
#APP
# 83 "src/ioport.h" 1
	outb %al, %dx
# 0 "" 2
#NO_APP
.LBE8822:
.LBE8821:
.LBB8823:
.LBB8824:
	movb	2(%esi), %al
	leal	3(%ebx), %edx
#APP
# 83 "src/ioport.h" 1
	outb %al, %dx
# 0 "" 2
#NO_APP
.LBE8824:
.LBE8823:
.LBB8825:
.LBB8826:
	movb	3(%esi), %al
	leal	4(%ebx), %edx
#APP
# 83 "src/ioport.h" 1
	outb %al, %dx
# 0 "" 2
#NO_APP
.LBE8826:
.LBE8825:
.LBB8827:
.LBB8828:
	movb	4(%esi), %al
	leal	5(%ebx), %edx
#APP
# 83 "src/ioport.h" 1
	outb %al, %dx
# 0 "" 2
#NO_APP
.LBE8828:
.LBE8827:
.LBB8829:
.LBB8830:
	leal	7(%ebx), %edx
	movb	%cl, %al
#APP
# 83 "src/ioport.h" 1
	outb %al, %dx
# 0 "" 2
#NO_APP
	xorl	%eax, %eax
.LVL1121:
.L625:
.LVL1122:
.LBE8830:
.LBE8829:
	.loc 27 229 0
	popl	%esi
.LCFI223:
	.cfi_def_cfa_offset 20
.LVL1123:
	popl	%ebx
.LVL1124:
	popl	%esi
	popl	%edi
.LVL1125:
	popl	%ebp
	ret
	.cfi_endproc
.LFE708:
	.size	send_cmd.15132, .-send_cmd.15132
	.section	.text.ata_readwrite.15917,"ax",@progbits
	.type	ata_readwrite.15917, @function
ata_readwrite.15917:
.LFB716:
	.loc 27 531 0
	.cfi_startproc
.LVL1126:
	pushl	%ebp
.LCFI224:
	.cfi_def_cfa_offset 8
	pushl	%edi
.LCFI225:
	.cfi_def_cfa_offset 12
	pushl	%esi
.LCFI226:
	.cfi_def_cfa_offset 16
	pushl	%ebx
.LCFI227:
	.cfi_def_cfa_offset 20
	subl	$32, %esp
.LCFI228:
	.cfi_def_cfa_offset 52
	movl	%eax, %ebx
	.cfi_offset 3, -20
	.cfi_offset 6, -16
	.cfi_offset 7, -12
	.cfi_offset 5, -8
	movl	%edx, 16(%esp)
	.loc 27 532 0
	movl	(%eax), %eax
.LVL1127:
	movl	4(%ebx), %edx
.LVL1128:
	movl	$12, %ecx
.LVL1129:
.LBB8831:
.LBB8832:
	.loc 16 149 0
	leal	20(%esp), %esi
.L632:
	decl	%ecx
.LVL1130:
	movb	$0, (%esi,%ecx)
	.loc 16 148 0
	testl	%ecx, %ecx
	jne	.L632
.LBE8832:
.LBE8831:
	.loc 27 539 0
	movl	16(%ebx), %esi
	cmpw	$255, %si
	ja	.L633
	movzwl	%si, %edi
	xorl	%ebp, %ebp
	addl	%eax, %edi
	adcl	%edx, %ebp
	cmpl	$0, %ebp
	ja	.L633
	cmpl	$268435455, %edi
	jbe	.L634
.L633:
	.loc 27 547 0
	cmpl	$1, 16(%esp)
	sbbl	%ecx, %ecx
.LVL1131:
	andl	$-16, %ecx
	addl	$52, %ecx
	movb	%cl, (%esp)
	.loc 27 540 0
	movl	%esi, %edi
	shrw	$8, %di
	movl	%edi, %ecx
	movb	%cl, 28(%esp)
	.loc 27 541 0
	movl	%eax, %edi
	movl	%edx, %ebp
	shrdl	$24, %ebp, %edi
	shrl	$24, %ebp
	movl	%edi, %ecx
	movb	%cl, 29(%esp)
	.loc 27 542 0
	movl	%edx, %edi
	movb	%dl, 30(%esp)
.LVL1132:
	.loc 27 543 0
	shrl	$8, %edi
	movl	%edi, %ecx
	movb	%cl, 31(%esp)
	.loc 27 547 0
	movb	(%esp), %cl
	movb	%cl, 26(%esp)
	movl	%eax, %edi
.LVL1133:
	andl	$16777215, %edi
	xorl	%ecx, %ecx
.LVL1134:
	movl	%edi, %eax
	movl	%ecx, %edx
	jmp	.L638
.LVL1135:
.L634:
	.loc 27 554 0
	cmpl	$1, 16(%esp)
	sbbl	%ecx, %ecx
.LVL1136:
	andl	$-16, %ecx
	addl	$48, %ecx
	movb	%cl, 26(%esp)
.LVL1137:
.L638:
	.loc 27 561 0
	movl	%esi, %ecx
	movb	%cl, 21(%esp)
	.loc 27 562 0
	movb	%al, 22(%esp)
	.loc 27 563 0
	movl	%eax, %esi
	movl	%edx, %edi
	shrdl	$8, %edi, %esi
	shrl	$8, %edi
	movl	%esi, %ecx
	movb	%cl, 23(%esp)
	.loc 27 564 0
	movl	%eax, %esi
	movl	%edx, %edi
	shrdl	$16, %edi, %esi
	shrl	$16, %edi
	movl	%esi, %ecx
	movb	%cl, 24(%esp)
	.loc 27 565 0
	shrdl	$24, %edx, %eax
.LVL1138:
	shrl	$24, %edx
	andl	$15, %eax
	orl	$64, %eax
	movb	%al, 25(%esp)
.LBB8833:
.LBB8834:
.LBB8844:
	.loc 27 491 0
	movl	12(%ebx), %ecx
.LVL1139:
.LBE8844:
.LBB8843:
	.loc 27 493 0
#APP
# 493 "src/ata.c" 1
	movl %CS:36(%ecx), %eax
# 0 "" 2
.LVL1140:
#NO_APP
.LBE8843:
.LBB8842:
	.loc 27 494 0
#APP
# 494 "src/ata.c" 1
	movw %CS:-983040(%eax), %si
# 0 "" 2
.LVL1141:
#NO_APP
.LBE8842:
.LBB8841:
	.loc 27 495 0
#APP
# 495 "src/ata.c" 1
	movw %CS:-983038(%eax), %di
# 0 "" 2
.LVL1142:
#NO_APP
.LBE8841:
	.loc 27 498 0
	addl	$2, %edi
.LVL1143:
.LBB8839:
.LBB8840:
	.loc 2 83 0
	movb	$10, %al
.LVL1144:
	movl	%edi, %edx
#APP
# 83 "src/ioport.h" 1
	outb %al, %dx
# 0 "" 2
#NO_APP
.LBE8840:
.LBE8839:
	.loc 27 500 0
	leal	20(%esp), %edx
	movl	%ecx, %eax
	call	send_cmd.15132
.LVL1145:
	movl	%eax, %ecx
.LVL1146:
	.loc 27 501 0
	testl	%eax, %eax
	jne	.L641
.LVL1147:
.LBB8837:
.LBB8838:
	.loc 27 235 0
	movzwl	%si, %eax
.LVL1148:
	call	ndelay_await_not_bsy.14892
.LVL1149:
	movl	%eax, %ecx
.LVL1150:
	.loc 27 236 0
	testl	%eax, %eax
	js	.L641
.LVL1151:
	.loc 27 239 0
	testb	$1, %al
	je	.L642
	movl	$-4, %ecx
.LVL1152:
	jmp	.L641
.LVL1153:
.L642:
	.loc 27 244 0
	andb	$8, %cl
.LVL1154:
	jne	.L643
	movl	$-5, %ecx
.LVL1155:
.L641:
.LBE8838:
.LBE8837:
.LBB8835:
.LBB8836:
	.loc 2 83 0
	movb	$8, %al
	movl	%edi, %edx
#APP
# 83 "src/ioport.h" 1
	outb %al, %dx
# 0 "" 2
#NO_APP
.LBE8836:
.LBE8835:
.LBE8834:
.LBE8833:
	.loc 27 572 0
	cmpl	$1, %ecx
	sbbl	%eax, %eax
	notl	%eax
	andl	$12, %eax
	.loc 27 575 0
	addl	$32, %esp
	popl	%ebx
.LVL1156:
	popl	%esi
.LVL1157:
	popl	%edi
	popl	%ebp
	ret
.LVL1158:
.L643:
.LBB8846:
.LBB8845:
	.loc 27 506 0
	movl	$512, %ecx
.LVL1159:
	movl	16(%esp), %edx
	movl	%ebx, %eax
	call	ata_pio_transfer.15388
	movl	%eax, %ecx
.LVL1160:
	jmp	.L641
.LBE8845:
.LBE8846:
	.cfi_endproc
.LFE716:
	.size	ata_readwrite.15917, .-ata_readwrite.15917
	.section	.text.process_ata_misc_op.15100,"ax",@progbits
	.type	process_ata_misc_op.15100, @function
process_ata_misc_op.15100:
.LFB707:
	.loc 27 147 0
	.cfi_startproc
.LVL1161:
	pushl	%ebp
.LCFI229:
	.cfi_def_cfa_offset 8
	pushl	%edi
.LCFI230:
	.cfi_def_cfa_offset 12
	pushl	%esi
.LCFI231:
	.cfi_def_cfa_offset 16
	pushl	%ebx
.LCFI232:
	.cfi_def_cfa_offset 20
	subl	$20, %esp
.LCFI233:
	.cfi_def_cfa_offset 40
.LBB8922:
	.loc 27 151 0
	movl	12(%eax), %ebx
	.cfi_offset 3, -20
	.cfi_offset 6, -16
	.cfi_offset 7, -12
	.cfi_offset 5, -8
.LVL1162:
.LBE8922:
	.loc 27 153 0
	movb	18(%eax), %dl
	cmpb	$5, %dl
	ja	.L653
	cmpb	$4, %dl
	jae	.L651
	testb	%dl, %dl
	je	.L650
	jmp	.L649
.L653:
	cmpb	$7, %dl
	je	.L651
	cmpb	$16, %dl
	jne	.L649
	jmp	.L676
.L650:
.LBB8923:
.LBB8924:
.LBB8925:
	.loc 27 82 0
#APP
# 82 "src/ata.c" 1
	movl %CS:36(%ebx), %eax
# 0 "" 2
.LVL1163:
#NO_APP
.LBE8925:
.LBB8926:
	.loc 27 83 0
#APP
# 83 "src/ata.c" 1
	movb %CS:40(%ebx), %dl
# 0 "" 2
#NO_APP
	movb	%dl, 8(%esp)
.LBE8926:
.LBB8927:
	.loc 27 84 0
#APP
# 84 "src/ata.c" 1
	movw %CS:-983040(%eax), %si
# 0 "" 2
.LVL1164:
#NO_APP
.LBE8927:
.LBB8928:
	.loc 27 85 0
#APP
# 85 "src/ata.c" 1
	movw %CS:-983038(%eax), %ax
# 0 "" 2
.LVL1165:
#NO_APP
.LBE8928:
	.loc 27 89 0
	addl	$2, %eax
.LVL1166:
	movw	%ax, 18(%esp)
.LBB8929:
.LBB8930:
	.loc 2 83 0
	movb	$14, %al
	movw	18(%esp), %dx
#APP
# 83 "src/ioport.h" 1
	outb %al, %dx
# 0 "" 2
#NO_APP
.LBE8930:
.LBE8929:
	.loc 27 90 0
	movl	$5, %eax
	call	udelay.1732
.LBB8931:
.LBB8932:
	.loc 2 83 0
	movb	$10, %al
	movw	18(%esp), %dx
#APP
# 83 "src/ioport.h" 1
	outb %al, %dx
# 0 "" 2
#NO_APP
.LBE8932:
.LBE8931:
.LBB8933:
.LBB8934:
	.loc 7 127 0
#APP
# 127 "src/clock.c" 1
	movl %CS:cpu_khz, %edi
# 0 "" 2
.LVL1167:
#NO_APP
.LBE8934:
.LBB8935:
.LBB8936:
.LBB8937:
.LBB8938:
	.loc 8 79 0
#APP
# 79 "src/util.h" 1
	rdtsc
# 0 "" 2
.LVL1168:
#NO_APP
.LBE8938:
.LBE8937:
	.loc 7 105 0
	sall	%edi
.LVL1169:
	xorl	%ebp, %ebp
.LVL1170:
	addl	%eax, %edi
.LVL1171:
	adcl	%edx, %ebp
.LVL1172:
	jmp	.L654
.LVL1173:
.L655:
.LBB8939:
.LBB8940:
.LBB8941:
.LBB8942:
	.loc 6 108 0
#APP
# 108 "src/stacks.c" 1
	sti
nop
rep ; nop
cli
cld

# 0 "" 2
.LVL1174:
#NO_APP
.L654:
.LBE8942:
.LBE8941:
.LBE8940:
.LBE8939:
.LBB8943:
.LBB8944:
.LBB8945:
	.loc 8 79 0
#APP
# 79 "src/util.h" 1
	rdtsc
# 0 "" 2
.LVL1175:
#NO_APP
.LBE8945:
.LBE8944:
.LBE8943:
	.loc 7 106 0
	subl	%edi, %eax
	sbbl	%ebp, %edx
.LVL1176:
	cmpl	$0, %edx
	jl	.L655
	jg	.L667
	cmpl	$0, %eax
	jbe	.L655
.L667:
.LBE8936:
.LBE8935:
.LBE8933:
	.loc 27 95 0
	movzwl	%si, %edi
.LVL1177:
	movl	%edi, %eax
	call	await_not_bsy.14871
	.loc 27 96 0
	testl	%eax, %eax
.LVL1178:
	js	.L657
	.loc 27 98 0
	cmpb	$0, 8(%esp)
	je	.L658
.LBB8946:
.LBB8947:
.LBB8948:
.LBB8949:
	.loc 7 134 0
#APP
# 134 "src/clock.c" 1
	movl %CS:cpu_khz, %ebp
# 0 "" 2
.LVL1179:
#NO_APP
.LBE8949:
.LBB8950:
.LBB8951:
	.loc 8 79 0
#APP
# 79 "src/util.h" 1
	rdtsc
# 0 "" 2
.LVL1180:
#NO_APP
	movl	%eax, (%esp)
	movl	%edx, 4(%esp)
.LBE8951:
.LBE8950:
	.loc 7 135 0
	movl	$32000, %ecx
	movl	%ebp, %eax
	mull	%ecx
	movl	%eax, 8(%esp)
	movl	%edx, 12(%esp)
	movl	(%esp), %eax
	movl	4(%esp), %edx
	addl	%eax, 8(%esp)
	adcl	%edx, 12(%esp)
.LBE8948:
.LBE8947:
	.loc 27 102 0
	leal	6(%esi), %ebp
.LVL1181:
.L672:
.LBB8952:
.LBB8953:
	.loc 2 83 0
	movb	$-80, %al
	movl	%ebp, %edx
#APP
# 83 "src/ioport.h" 1
	outb %al, %dx
# 0 "" 2
#NO_APP
.LBE8953:
.LBE8952:
	.loc 27 103 0
	movl	%edi, %eax
	call	ndelay_await_not_bsy.14892
	.loc 27 104 0
	testl	%eax, %eax
.LVL1182:
	js	.L657
.LBB8954:
.LBB8955:
	.loc 2 93 0
	movl	%ebp, %edx
#APP
# 93 "src/ioport.h" 1
	inb %dx, %al
# 0 "" 2
.LVL1183:
#NO_APP
.LBE8955:
.LBE8954:
	.loc 27 106 0
	cmpb	$-80, %al
	je	.L659
.LBB8956:
.LBB8957:
.LBB8958:
	.loc 8 79 0
#APP
# 79 "src/util.h" 1
	rdtsc
# 0 "" 2
.LVL1184:
#NO_APP
.LBE8958:
.LBE8957:
.LBE8956:
	.loc 27 109 0
	subl	8(%esp), %eax
	sbbl	12(%esp), %edx
	cmpl	$0, %edx
	jl	.L672
	jg	.L668
	cmpl	$0, %eax
	jbe	.L672
.L668:
.LBB8959:
.LBB8960:
	.loc 3 516 0
	pushl	$110
.LCFI234:
	.cfi_def_cfa_offset 44
	pushl	$__func__.14924
.LCFI235:
	.cfi_def_cfa_offset 48
	jmp	.L674
.LCFI236:
	.cfi_def_cfa_offset 40
.LVL1185:
.L658:
.LBE8960:
.LBE8959:
.LBE8946:
.LBB8961:
.LBB8962:
	.loc 2 83 0
	leal	6(%esi), %edx
	movb	$-96, %al
.LVL1186:
#APP
# 83 "src/ioport.h" 1
	outb %al, %dx
# 0 "" 2
.LVL1187:
#NO_APP
.L659:
.LBE8962:
.LBE8961:
.LBB8963:
	.loc 27 120 0
#APP
# 120 "src/ata.c" 1
	movb %CS:(%ebx), %al
# 0 "" 2
.LVL1188:
#NO_APP
.LBE8963:
	.loc 27 121 0
	cmpb	$2, %al
	jne	.L657
.LBB8964:
.LBB8965:
.LBB8966:
.LBB8967:
.LBB8968:
.LBB8969:
	.loc 7 134 0
#APP
# 134 "src/clock.c" 1
	movl %CS:cpu_khz, %ebx
# 0 "" 2
.LVL1189:
#NO_APP
.LBE8969:
.LBB8970:
.LBB8971:
	.loc 8 79 0
#APP
# 79 "src/util.h" 1
	rdtsc
# 0 "" 2
.LVL1190:
#NO_APP
	movl	%eax, 8(%esp)
	movl	%edx, 12(%esp)
.LBE8971:
.LBE8970:
	.loc 7 135 0
	movl	$32000, %ecx
	movl	%ebx, %eax
	mull	%ecx
	movl	%eax, %ecx
.LVL1191:
	movl	%edx, %ebx
.LVL1192:
	addl	8(%esp), %ecx
.LVL1193:
	adcl	12(%esp), %ebx
.LVL1194:
.LBE8968:
.LBE8967:
.LBB8972:
.LBB8973:
.LBB8974:
	.loc 2 93 0
	leal	7(%esi), %edx
	movl	%edx, %esi
.LVL1195:
.L664:
	movl	%esi, %edx
#APP
# 93 "src/ioport.h" 1
	inb %dx, %al
# 0 "" 2
.LVL1196:
#NO_APP
.LBE8974:
.LBE8973:
	.loc 27 36 0
	testb	$64, %al
	jne	.L657
.LBB8975:
.LBB8976:
.LBB8977:
	.loc 8 79 0
#APP
# 79 "src/util.h" 1
	rdtsc
# 0 "" 2
.LVL1197:
#NO_APP
	movl	%eax, 8(%esp)
	movl	%edx, 12(%esp)
.LBE8977:
.LBE8976:
.LBE8975:
	.loc 27 38 0
	subl	%ecx, 8(%esp)
	sbbl	%ebx, 12(%esp)
	cmpl	$0, 12(%esp)
	jl	.L662
	jg	.L669
	cmpl	$0, 8(%esp)
	jbe	.L662
.L669:
.LBB8978:
.LBB8979:
	.loc 3 516 0
	pushl	$39
.LCFI237:
	.cfi_def_cfa_offset 44
	pushl	$__func__.14856
.LCFI238:
	.cfi_def_cfa_offset 48
.LVL1198:
.L674:
	pushl	$.LC10
.LCFI239:
	.cfi_def_cfa_offset 52
	.cfi_escape 0x2e,0xc
	call	__dprintf.1656
.LVL1199:
	addl	$12, %esp
.LCFI240:
	.cfi_def_cfa_offset 40
	jmp	.L657
.LVL1200:
.L662:
.LBE8979:
.LBE8978:
.LBB8980:
.LBB8981:
.LBB8982:
.LBB8983:
	.loc 6 108 0
#APP
# 108 "src/stacks.c" 1
	sti
nop
rep ; nop
cli
cld

# 0 "" 2
#NO_APP
	jmp	.L664
.LVL1201:
.L657:
.LBE8983:
.LBE8982:
.LBE8981:
.LBE8980:
.LBE8972:
.LBE8966:
.LBE8965:
.LBE8964:
.LBB8984:
.LBB8985:
	.loc 2 83 0
	movb	$8, %al
.LVL1202:
	movw	18(%esp), %dx
#APP
# 83 "src/ioport.h" 1
	outb %al, %dx
# 0 "" 2
#NO_APP
	jmp	.L651
.LVL1203:
.L676:
.LBE8985:
.LBE8984:
.LBE8924:
.LBE8923:
.LBB8986:
.LBB8987:
.LBB8988:
	.loc 27 136 0
#APP
# 136 "src/ata.c" 1
	movl %CS:36(%ebx), %eax
# 0 "" 2
.LVL1204:
#NO_APP
.LBE8988:
.LBB8989:
	.loc 27 137 0
#APP
# 137 "src/ata.c" 1
	movw %CS:-983040(%eax), %dx
# 0 "" 2
.LVL1205:
#NO_APP
.LBE8989:
.LBB8990:
.LBB8991:
	.loc 2 93 0
	addl	$7, %edx
.LVL1206:
#APP
# 93 "src/ioport.h" 1
	inb %dx, %al
# 0 "" 2
.LVL1207:
#NO_APP
.LBE8991:
.LBE8990:
	.loc 27 139 0
	movl	%eax, %edx
.LVL1208:
	andl	$192, %edx
	movl	$170, %eax
	cmpl	$64, %edx
	jne	.L665
	jmp	.L651
.LVL1209:
.L649:
.LBE8987:
.LBE8986:
	.loc 27 164 0
	movw	$0, 16(%eax)
	movl	$1, %eax
.LVL1210:
	.loc 27 165 0
	jmp	.L665
.LVL1211:
.L651:
	xorl	%eax, %eax
.LVL1212:
.L665:
	.loc 27 167 0
	addl	$20, %esp
	popl	%ebx
.LVL1213:
	popl	%esi
.LVL1214:
	popl	%edi
	popl	%ebp
.LVL1215:
	ret
	.cfi_endproc
.LFE707:
	.size	process_ata_misc_op.15100, .-process_ata_misc_op.15100
	.section	.text.i8042_wait_write.31345,"ax",@progbits
	.type	i8042_wait_write.31345, @function
i8042_wait_write.31345:
.LFB1420:
	.file 28 "src/ps2port.c"
	.loc 28 41 0
	.cfi_startproc
	pushl	%ebx
.LCFI241:
	.cfi_def_cfa_offset 8
	.loc 28 41 0
	xorl	%ebx, %ebx
	.cfi_offset 3, -8
.LVL1216:
.L680:
.LBB8992:
.LBB8993:
.LBB8994:
	.loc 2 93 0
#APP
# 93 "src/ioport.h" 1
	inb $100, %al
# 0 "" 2
.LVL1217:
#NO_APP
.LBE8994:
.LBE8993:
	.loc 28 46 0
	testb	$2, %al
	jne	.L678
	xorl	%eax, %eax
.LVL1218:
	jmp	.L679
.LVL1219:
.L678:
	.loc 28 48 0
	movl	$50, %eax
.LVL1220:
	call	udelay.1732
.LBE8992:
	.loc 28 44 0
	incl	%ebx
	cmpl	$10000, %ebx
	jne	.L680
.LBB8995:
.LBB8996:
	.loc 3 516 0
	pushl	$50
.LCFI242:
	.cfi_def_cfa_offset 12
	pushl	$__func__.31352
.LCFI243:
	.cfi_def_cfa_offset 16
	pushl	$.LC10
.LCFI244:
	.cfi_def_cfa_offset 20
	.cfi_escape 0x2e,0xc
	call	__dprintf.1656
	addl	$12, %esp
.LCFI245:
	.cfi_def_cfa_offset 8
	orl	$-1, %eax
.L679:
.LBE8996:
.LBE8995:
	.loc 28 52 0
	popl	%ebx
.LVL1221:
	ret
	.cfi_endproc
.LFE1420:
	.size	i8042_wait_write.31345, .-i8042_wait_write.31345
	.section	.text.i8042_command.31420,"ax",@progbits
	.type	i8042_command.31420, @function
i8042_command.31420:
.LFB1423:
	.loc 28 107 0
	.cfi_startproc
.LVL1222:
	pushl	%ebp
.LCFI246:
	.cfi_def_cfa_offset 8
	pushl	%edi
.LCFI247:
	.cfi_def_cfa_offset 12
	pushl	%esi
.LCFI248:
	.cfi_def_cfa_offset 16
	pushl	%ebx
.LCFI249:
	.cfi_def_cfa_offset 20
	subl	$8, %esp
.LCFI250:
	.cfi_def_cfa_offset 28
	movl	%eax, %ebx
	.cfi_offset 3, -20
	.cfi_offset 6, -16
	.cfi_offset 7, -12
	.cfi_offset 5, -8
	movl	%edx, %ebp
.LBB8997:
.LBB8998:
	.loc 28 75 0
	movl	%eax, %esi
.LVL1223:
	sarl	$8, %esi
	andl	$15, %esi
	.loc 28 76 0
	sarl	$12, %eax
.LVL1224:
	andl	$15, %eax
	movl	%eax, 4(%esp)
	.loc 28 79 0
	call	i8042_wait_write.31345
.LVL1225:
	movl	%eax, %edi
.LVL1226:
	.loc 28 80 0
	testl	%eax, %eax
	jne	.L684
.LVL1227:
.LBB8999:
.LBB9000:
	.loc 2 83 0
	movb	%bl, %al
.LVL1228:
#APP
# 83 "src/ioport.h" 1
	outb %al, $100
# 0 "" 2
#NO_APP
	xorl	%ebx, %ebx
.LVL1229:
	jmp	.L685
.L687:
.LBE9000:
.LBE8999:
	.loc 28 87 0
	call	i8042_wait_write.31345
	.loc 28 88 0
	testl	%eax, %eax
	jne	.L686
.LVL1230:
.LBB9001:
.LBB9002:
	.loc 2 83 0
	movb	(%ebp,%ebx), %al
.LVL1231:
#APP
# 83 "src/ioport.h" 1
	outb %al, $96
# 0 "" 2
#NO_APP
.LBE9002:
.LBE9001:
	.loc 28 86 0
	incl	%ebx
.L685:
	cmpl	4(%esp), %ebx
	jl	.L687
	xorl	%ebx, %ebx
.LVL1232:
	jmp	.L688
.LVL1233:
.L691:
	xorl	%edx, %edx
.L690:
.LBB9003:
.LBB9004:
.LBB9005:
.LBB9006:
.LBB9007:
	.loc 2 93 0
#APP
# 93 "src/ioport.h" 1
	inb $100, %al
# 0 "" 2
.LVL1234:
#NO_APP
.LBE9007:
.LBE9006:
	.loc 28 31 0
	testb	$1, %al
	jne	.L689
	.loc 28 33 0
	movl	$50, %eax
.LVL1235:
	movl	%edx, (%esp)
.LVL1236:
	call	udelay.1732
.LBE9005:
	.loc 28 29 0
	movl	(%esp), %edx
	incl	%edx
.LVL1237:
	cmpl	$10000, %edx
	jne	.L690
.LBB9008:
.LBB9009:
	.loc 3 516 0
	pushl	$35
.LCFI251:
	.cfi_def_cfa_offset 32
	pushl	$__func__.31334
.LCFI252:
	.cfi_def_cfa_offset 36
	pushl	$.LC10
.LCFI253:
	.cfi_def_cfa_offset 40
	.cfi_escape 0x2e,0xc
	call	__dprintf.1656
.LVL1238:
	addl	$12, %esp
.LCFI254:
	.cfi_def_cfa_offset 28
	orl	$-1, %eax
.LVL1239:
	jmp	.L686
.LVL1240:
.L689:
.LBE9009:
.LBE9008:
.LBE9004:
.LBE9003:
.LBB9010:
.LBB9011:
	.loc 2 93 0
#APP
# 93 "src/ioport.h" 1
	inb $96, %al
# 0 "" 2
.LVL1241:
#NO_APP
.LBE9011:
.LBE9010:
	.loc 28 98 0
	movb	%al, (%ebp,%ebx)
	.loc 28 94 0
	incl	%ebx
.L688:
	cmpl	%esi, %ebx
	jl	.L691
.LVL1242:
.L684:
	movl	%edi, %eax
.LVL1243:
.L686:
.LVL1244:
.LBE8998:
.LBE8997:
	.loc 28 113 0
	popl	%edi
.LCFI255:
	.cfi_def_cfa_offset 24
.LVL1245:
	popl	%ebp
.LCFI256:
	.cfi_def_cfa_offset 20
.LVL1246:
	popl	%ebx
.LVL1247:
	popl	%esi
.LVL1248:
	popl	%edi
	popl	%ebp
	ret
	.cfi_endproc
.LFE1423:
	.size	i8042_command.31420, .-i8042_command.31420
	.section	.rodata.str1.1
.LC11:
	.string	"Got ps2 nak (status=%x)\n"
.LC12:
	.string	"Discarding ps2 data %02x (status=%02x)\n"
	.section	.text.ps2_recvbyte.31457,"ax",@progbits
	.type	ps2_recvbyte.31457, @function
ps2_recvbyte.31457:
.LFB1427:
	.loc 28 153 0
	.cfi_startproc
.LVL1249:
	pushl	%edi
.LCFI257:
	.cfi_def_cfa_offset 8
	pushl	%esi
.LCFI258:
	.cfi_def_cfa_offset 12
	pushl	%ebx
.LCFI259:
	.cfi_def_cfa_offset 16
	subl	$16, %esp
.LCFI260:
	.cfi_def_cfa_offset 32
	movl	%eax, %edi
	.cfi_offset 3, -16
	.cfi_offset 6, -12
	.cfi_offset 7, -8
	movl	%edx, %ebx
	movl	%ecx, %esi
.LBB9012:
.LBB9013:
.LBB9014:
	.loc 7 134 0
#APP
# 134 "src/clock.c" 1
	movl %CS:cpu_khz, %ecx
# 0 "" 2
.LVL1250:
#NO_APP
.LBE9014:
.LBB9015:
.LBB9016:
	.loc 8 79 0
#APP
# 79 "src/util.h" 1
	rdtsc
# 0 "" 2
.LVL1251:
#NO_APP
	movl	%eax, (%esp)
	movl	%edx, 4(%esp)
.LVL1252:
.LBE9016:
.LBE9015:
	.loc 7 135 0
	movl	%ecx, %eax
	mull	%esi
	movl	%eax, 8(%esp)
	movl	%edx, 12(%esp)
	movl	(%esp), %eax
	movl	4(%esp), %edx
	addl	%eax, 8(%esp)
	adcl	%edx, 12(%esp)
.L703:
.LBE9013:
.LBE9012:
.LBB9017:
.LBB9018:
.LBB9019:
	.loc 2 93 0
#APP
# 93 "src/ioport.h" 1
	inb $100, %al
# 0 "" 2
.LVL1253:
#NO_APP
.LBE9019:
.LBE9018:
	.loc 28 157 0
	movzbl	%al, %edx
	testb	$1, %dl
	je	.L695
.LBB9020:
.LBB9021:
.LBB9022:
	.loc 2 93 0
#APP
# 93 "src/ioport.h" 1
	inb $96, %al
# 0 "" 2
.LVL1254:
#NO_APP
.LBE9022:
.LBE9021:
	.loc 28 161 0
	movl	%edx, %ecx
.LVL1255:
	shrl	$5, %ecx
	andl	$1, %ecx
	cmpl	%edi, %ecx
	jne	.L696
	.loc 28 162 0
	testl	%ebx, %ebx
	jne	.L697
	.loc 28 163 0
	movzbl	%al, %eax
.LVL1256:
	jmp	.L698
.LVL1257:
.L697:
	.loc 28 164 0
	cmpb	$-6, %al
	je	.L699
	.loc 28 166 0
	cmpb	$-2, %al
	jne	.L696
	.loc 28 167 0
	pushl	%edx
.LCFI261:
	.cfi_def_cfa_offset 36
	pushl	$.LC11
.LCFI262:
	.cfi_def_cfa_offset 40
	.cfi_escape 0x2e,0x8
	call	__dprintf.1656
.LVL1258:
	popl	%eax
.LCFI263:
	.cfi_def_cfa_offset 36
	popl	%edx
.LCFI264:
	.cfi_def_cfa_offset 32
	movl	$254, %eax
	.loc 28 168 0
	jmp	.L698
.LVL1259:
.L696:
	.loc 28 173 0
	pushl	%edx
.LCFI265:
	.cfi_def_cfa_offset 36
	movzbl	%al, %eax
.LVL1260:
	pushl	%eax
.LCFI266:
	.cfi_def_cfa_offset 40
	pushl	$.LC12
.LCFI267:
	.cfi_def_cfa_offset 44
	.cfi_escape 0x2e,0xc
	call	__dprintf.1656
.LVL1261:
	addl	$12, %esp
.LCFI268:
	.cfi_def_cfa_offset 32
.LVL1262:
.L695:
.LBE9020:
.LBB9023:
.LBB9024:
.LBB9025:
	.loc 8 79 0
#APP
# 79 "src/util.h" 1
	rdtsc
# 0 "" 2
.LVL1263:
#NO_APP
.LBE9025:
.LBE9024:
.LBE9023:
	.loc 28 176 0
	subl	8(%esp), %eax
	sbbl	12(%esp), %edx
	cmpl	$0, %edx
	jl	.L700
	jg	.L705
	cmpl	$0, %eax
	jbe	.L700
.L705:
	.loc 28 178 0
	orl	$-1, %eax
	cmpl	$100, %esi
	jle	.L698
.LBB9026:
.LBB9027:
	.loc 3 516 0
	pushl	$179
.LCFI269:
	.cfi_def_cfa_offset 36
	pushl	$__func__.31462
.LCFI270:
	.cfi_def_cfa_offset 40
	pushl	$.LC10
.LCFI271:
	.cfi_def_cfa_offset 44
	call	__dprintf.1656
.LVL1264:
	addl	$12, %esp
.LCFI272:
	.cfi_def_cfa_offset 32
	orl	$-1, %eax
	jmp	.L698
.LVL1265:
.L700:
.LBE9027:
.LBE9026:
.LBB9028:
.LBB9029:
.LBB9030:
.LBB9031:
	.loc 6 108 0
#APP
# 108 "src/stacks.c" 1
	sti
nop
rep ; nop
cli
cld

# 0 "" 2
#NO_APP
.LBE9031:
.LBE9030:
.LBE9029:
.LBE9028:
.LBE9017:
	.loc 28 183 0
	jmp	.L703
.LVL1266:
.L699:
	movl	$250, %eax
.LVL1267:
.L698:
	.loc 28 184 0
	addl	$16, %esp
	popl	%ebx
.LVL1268:
	popl	%esi
.LVL1269:
	popl	%edi
.LVL1270:
	ret
	.cfi_endproc
.LFE1427:
	.size	ps2_recvbyte.31457, .-ps2_recvbyte.31457
	.section	.text.ps2_sendbyte.31499,"ax",@progbits
	.type	ps2_sendbyte.31499, @function
ps2_sendbyte.31499:
.LFB1428:
	.loc 28 188 0
	.cfi_startproc
.LVL1271:
	pushl	%edi
.LCFI273:
	.cfi_def_cfa_offset 8
	pushl	%esi
.LCFI274:
	.cfi_def_cfa_offset 12
	pushl	%ebx
.LCFI275:
	.cfi_def_cfa_offset 16
	subl	$4, %esp
.LCFI276:
	.cfi_def_cfa_offset 20
	movl	%eax, %ebx
	.cfi_offset 3, -16
	.cfi_offset 6, -12
	.cfi_offset 7, -8
	movl	%ecx, %esi
	movl	%edx, %edi
	.loc 28 191 0
	testl	%eax, %eax
	je	.L707
.LVL1272:
	movb	%dl, 3(%esp)
.LVL1273:
.LBB9032:
.LBB9033:
	.loc 28 128 0
	leal	3(%esp), %edx
	movl	$4308, %eax
.LVL1274:
	call	i8042_command.31420
.LBE9033:
.LBE9032:
	.loc 28 195 0
	testl	%eax, %eax
.LVL1275:
	jne	.L708
	jmp	.L709
.LVL1276:
.L707:
.LBB9034:
.LBB9035:
	.loc 28 119 0
	call	i8042_wait_write.31345
.LVL1277:
	.loc 28 120 0
	testl	%eax, %eax
.LVL1278:
	jne	.L708
.LBB9036:
.LBB9037:
	.loc 2 83 0
	movl	%edi, %eax
.LVL1279:
#APP
# 83 "src/ioport.h" 1
	outb %al, $96
# 0 "" 2
.LVL1280:
#NO_APP
.L709:
.LBE9037:
.LBE9036:
.LBE9035:
.LBE9034:
	.loc 28 199 0
	movl	%esi, %ecx
	movl	$1, %edx
	movl	%ebx, %eax
.LVL1281:
	call	ps2_recvbyte.31457
	.loc 28 200 0
	testl	%eax, %eax
.LVL1282:
	js	.L708
	.loc 28 202 0
	cmpl	$250, %eax
	sete	%al
.LVL1283:
	movzbl	%al, %eax
.LVL1284:
	decl	%eax
.L708:
.LVL1285:
	.loc 28 206 0
	popl	%ecx
.LCFI277:
	.cfi_def_cfa_offset 16
	popl	%ebx
.LVL1286:
	popl	%esi
.LVL1287:
	popl	%edi
.LVL1288:
	ret
	.cfi_endproc
.LFE1428:
	.size	ps2_sendbyte.31499, .-ps2_sendbyte.31499
	.section	.text.__ps2_command.31521,"ax",@progbits
	.type	__ps2_command.31521, @function
__ps2_command.31521:
.LFB1429:
	.loc 28 210 0
	.cfi_startproc
.LVL1289:
	pushl	%ebp
.LCFI278:
	.cfi_def_cfa_offset 8
	pushl	%edi
.LCFI279:
	.cfi_def_cfa_offset 12
	pushl	%esi
.LCFI280:
	.cfi_def_cfa_offset 16
	pushl	%ebx
.LCFI281:
	.cfi_def_cfa_offset 20
	subl	$16, %esp
.LCFI282:
	.cfi_def_cfa_offset 36
	movl	%eax, %esi
	.cfi_offset 3, -20
	.cfi_offset 6, -16
	.cfi_offset 7, -12
	.cfi_offset 5, -8
	movl	%edx, %edi
	movl	%ecx, %ebx
	.loc 28 212 0
	movl	%edx, %eax
.LVL1290:
	sarl	$8, %eax
	andl	$15, %eax
	movl	%eax, 8(%esp)
	.loc 28 213 0
	movl	%edx, %eax
	sarl	$12, %eax
	andl	$15, %eax
	movl	%eax, 4(%esp)
.LBB9038:
.LBB9039:
	.loc 10 253 0
	movl	$64, %eax
#APP
# 253 "src/biosvar.h" 1
	movw %ax, %ES
# 0 "" 2
#NO_APP
.LBB9040:
#APP
# 253 "src/biosvar.h" 1
	movw %ES:14, %ax
# 0 "" 2
.LVL1291:
#NO_APP
.LBE9040:
.LBE9039:
.LBE9038:
	.loc 28 216 0
#APP
# 216 "src/ps2port.c" 1
	movw %ax, %ES
# 0 "" 2
#NO_APP
.LBB9041:
#APP
# 216 "src/ps2port.c" 1
	movb %ES:289, %al
# 0 "" 2
.LVL1292:
#NO_APP
.LBE9041:
	movb	%al, 15(%esp)
.LVL1293:
	.loc 28 218 0
	andl	$-52, %eax
.LVL1294:
	orl	$48, %eax
	movb	%al, 14(%esp)
.LVL1295:
	.loc 28 220 0
	leal	14(%esp), %edx
.LVL1296:
	movl	$4192, %eax
	call	i8042_command.31420
.LVL1297:
	movl	%eax, %ecx
.LVL1298:
	.loc 28 221 0
	testl	%eax, %eax
	jne	.L713
.LVL1299:
.LBB9042:
.LBB9043:
.LBB9044:
.LBB9045:
	.loc 6 108 0
#APP
# 108 "src/stacks.c" 1
	sti
nop
rep ; nop
cli
cld

# 0 "" 2
#NO_APP
.LBE9045:
.LBE9044:
.LBE9043:
.LBE9042:
	.loc 28 228 0
	testl	%esi, %esi
	je	.L714
	.loc 28 229 0
	andb	$-33, 14(%esp)
.LVL1300:
	jmp	.L715
.LVL1301:
.L714:
	.loc 28 231 0
	andb	$-17, 14(%esp)
.LVL1302:
.L715:
	.loc 28 232 0
	leal	14(%esp), %edx
	movl	$4192, %eax
.LVL1303:
	call	i8042_command.31420
.LVL1304:
	movl	%eax, %ecx
.LVL1305:
	.loc 28 233 0
	testl	%eax, %eax
	jne	.L716
.LVL1306:
	.loc 28 236 0
	cmpl	$767, %edi
	jne	.L717
	.loc 28 240 0
	movw	$1000, %cx
	movl	$255, %edx
	movl	%esi, %eax
.LVL1307:
	call	ps2_sendbyte.31499
	.loc 28 241 0
	movl	%eax, %ecx
.LVL1308:
	testl	%eax, %eax
	jne	.L716
	.loc 28 245 0
	movw	$4000, %cx
	xorl	%edx, %edx
	movl	%esi, %eax
.LVL1309:
	call	ps2_recvbyte.31457
	movl	%eax, %ecx
.LVL1310:
	.loc 28 246 0
	testl	%eax, %eax
	js	.L716
.LVL1311:
	.loc 28 248 0
	movb	%al, (%ebx)
	.loc 28 249 0
	movl	$100, %ecx
	xorl	%edx, %edx
	movl	%esi, %eax
.LVL1312:
	call	ps2_recvbyte.31457
	.loc 28 253 0
	movl	%eax, %edx
.LVL1313:
	notl	%edx
	sarl	$31, %edx
	andl	%edx, %eax
	movb	%al, 1(%ebx)
	jmp	.L733
.LVL1314:
.L717:
	.loc 28 254 0
	cmpl	$754, %edi
	jne	.L720
	.loc 28 258 0
	movl	$200, %ecx
	movl	$242, %edx
	movl	%esi, %eax
.LVL1315:
	call	ps2_sendbyte.31499
	.loc 28 259 0
	movl	%eax, %ecx
.LVL1316:
	testl	%eax, %eax
	jne	.L716
	.loc 28 263 0
	movw	$500, %cx
	xorl	%edx, %edx
	movl	%esi, %eax
.LVL1317:
	call	ps2_recvbyte.31457
	movl	%eax, %ecx
.LVL1318:
	.loc 28 264 0
	testl	%eax, %eax
	js	.L716
.LVL1319:
	.loc 28 266 0
	movb	%al, (%ebx)
	.loc 28 267 0
	leal	-171(%eax), %eax
.LVL1320:
	cmpl	$1, %eax
	jbe	.L722
	cmpl	$43, %ecx
	je	.L722
	cmpl	$96, %ecx
	je	.L722
	cmpl	$93, %ecx
	je	.L722
	cmpl	$71, %ecx
	jne	.L723
.L722:
	.loc 28 270 0
	movl	$500, %ecx
.LVL1321:
	xorl	%edx, %edx
	movl	%esi, %eax
	call	ps2_recvbyte.31457
	movl	%eax, %ecx
.LVL1322:
	.loc 28 271 0
	testl	%eax, %eax
	js	.L716
.LVL1323:
	.loc 28 273 0
	movb	%al, 1(%ebx)
	jmp	.L733
.LVL1324:
.L723:
	.loc 28 275 0
	movb	$0, 1(%ebx)
.LVL1325:
.L733:
	xorl	%ecx, %ecx
	jmp	.L716
.LVL1326:
.L720:
.LBB9046:
	.loc 28 279 0
	movl	%edi, %eax
.LVL1327:
	movzbl	%al, %edx
.LVL1328:
	movl	$200, %ecx
.LVL1329:
	movl	%esi, %eax
	call	ps2_sendbyte.31499
.LVL1330:
	movl	%eax, %ebp
.LVL1331:
	.loc 28 280 0
	xorl	%edi, %edi
.LVL1332:
	testl	%eax, %eax
	je	.L725
.LVL1333:
	jmp	.L724
.LVL1334:
.L726:
	.loc 28 286 0
	movzbl	(%ebx,%edi), %edx
	movl	$200, %ecx
	movl	%esi, %eax
.LVL1335:
	call	ps2_sendbyte.31499
	movl	%eax, %ecx
.LVL1336:
	.loc 28 287 0
	testl	%eax, %eax
	jne	.L716
.LVL1337:
	.loc 28 285 0
	incl	%edi
.LVL1338:
.L725:
	cmpl	4(%esp), %edi
	jl	.L726
	xorl	%edi, %edi
.LVL1339:
	jmp	.L727
.L728:
	.loc 28 293 0
	movl	$500, %ecx
	xorl	%edx, %edx
	movl	%esi, %eax
.LVL1340:
	call	ps2_recvbyte.31457
	movl	%eax, %ecx
.LVL1341:
	.loc 28 294 0
	testl	%eax, %eax
	js	.L716
.LVL1342:
	.loc 28 296 0
	movb	%al, (%ebx,%edi)
	.loc 28 292 0
	incl	%edi
.LVL1343:
.L727:
	cmpl	8(%esp), %edi
	jl	.L728
.L724:
	movl	%ebp, %ecx
.LVL1344:
.L716:
.LBE9046:
	.loc 28 304 0
	leal	15(%esp), %edx
	movl	$4192, %eax
	movl	%ecx, (%esp)
.LVL1345:
	call	i8042_command.31420
	.loc 28 305 0
	testl	%eax, %eax
.LVL1346:
	movl	(%esp), %ecx
	je	.L713
	movl	%eax, %ecx
.LVL1347:
.L713:
	.loc 28 309 0
	movl	%ecx, %eax
.LVL1348:
	addl	$16, %esp
	popl	%ebx
.LVL1349:
	popl	%esi
.LVL1350:
	popl	%edi
.LVL1351:
	popl	%ebp
	ret
	.cfi_endproc
.LFE1429:
	.size	__ps2_command.31521, .-__ps2_command.31521
	.section	.text.mouse_command.17861,"ax",@progbits
	.type	mouse_command.17861, @function
mouse_command.17861:
.LFB809:
	.loc 9 27 0
	.cfi_startproc
.LVL1352:
.LBB9047:
.LBB9048:
	.loc 22 374 0
#APP
# 374 "src/usb-hid.c" 1
	movl %CS:mouse_pipe, %ecx
# 0 "" 2
.LVL1353:
#NO_APP
.LBE9048:
.LBE9047:
	.loc 9 28 0
	testl	%ecx, %ecx
	je	.L735
.LBB9049:
.LBB9050:
	.loc 22 384 0
	cmpl	$754, %eax
	je	.L738
	jg	.L740
	cmpl	$230, %eax
	jl	.L736
	cmpl	$231, %eax
	jle	.L744
	subl	$244, %eax
.LVL1354:
	cmpl	$1, %eax
	ja	.L736
	jmp	.L744
.LVL1355:
.L740:
	cmpl	$1001, %eax
	je	.L739
	jg	.L741
	cmpl	$767, %eax
	jne	.L736
	jmp	.L738
.L741:
	cmpl	$4328, %eax
	je	.L744
	cmpl	$4339, %eax
	je	.L744
.L736:
	orl	$-1, %eax
.LVL1356:
	ret
.LVL1357:
.L738:
	.loc 22 397 0
	movb	$-86, (%edx)
	.loc 22 398 0
	movb	$0, 1(%edx)
	jmp	.L744
.L739:
	.loc 22 402 0
	movb	$0, (%edx)
	.loc 22 403 0
	movb	$4, 1(%edx)
	.loc 22 404 0
	movb	$100, 2(%edx)
.L744:
	xorl	%eax, %eax
.LVL1358:
	ret
.LVL1359:
.L735:
.LBE9050:
.LBE9049:
.LBB9051:
.LBB9052:
.LBB9053:
	.loc 28 315 0
	movl	%edx, %ecx
.LVL1360:
	movl	%eax, %edx
.LVL1361:
	movl	$1, %eax
.LVL1362:
	jmp	__ps2_command.31521
.LBE9053:
.LBE9052:
.LBE9051:
	.cfi_endproc
.LFE809:
	.size	mouse_command.17861, .-mouse_command.17861
	.section	.text.handle_15c2.1705,"ax",@progbits
	.type	handle_15c2.1705, @function
handle_15c2.1705:
.LFB827:
	.loc 9 272 0
	.cfi_startproc
.LVL1363:
	pushl	%edi
.LCFI283:
	.cfi_def_cfa_offset 8
	pushl	%esi
.LCFI284:
	.cfi_def_cfa_offset 12
	pushl	%ebx
.LCFI285:
	.cfi_def_cfa_offset 16
	subl	$8, %esp
.LCFI286:
	.cfi_def_cfa_offset 24
	movl	%eax, %ebx
	.cfi_offset 3, -16
	.cfi_offset 6, -12
	.cfi_offset 7, -8
	.loc 9 280 0
	movb	28(%eax), %al
.LVL1364:
	cmpb	$3, %al
	je	.L750
	ja	.L755
	cmpb	$1, %al
	je	.L797
	movb	17(%ebx), %al
	ja	.L749
	jmp	.L802
.L755:
	cmpb	$5, %al
	je	.L752
	jb	.L751
	cmpb	$6, %al
	je	.L753
	cmpb	$7, %al
	jne	.L782
	jmp	.L803
.L802:
.LBB9054:
.LBB9055:
	.loc 9 96 0
	testb	%al, %al
	je	.L757
	decb	%al
	jne	.L782
	jmp	.L804
.L757:
.LBB9056:
.LBB9057:
.LBB9058:
.LBB9059:
	.loc 10 253 0
	movl	$64, %eax
#APP
# 253 "src/biosvar.h" 1
	movw %ax, %ES
# 0 "" 2
#NO_APP
.LBB9060:
#APP
# 253 "src/biosvar.h" 1
	movw %ES:14, %dx
# 0 "" 2
.LVL1365:
#NO_APP
.LBE9060:
.LBE9059:
.LBE9058:
.LBB9061:
.LBB9062:
	.loc 9 43 0
#APP
# 43 "src/mouse.c" 1
	movw %dx, %ES
# 0 "" 2
#NO_APP
.LBB9063:
#APP
# 43 "src/mouse.c" 1
	movb %ES:289, %al
# 0 "" 2
.LVL1366:
#NO_APP
.LBE9063:
	.loc 9 44 0
	orl	$32, %eax
.LVL1367:
	.loc 9 45 0
	andl	$-3, %eax
.LVL1368:
.LBB9064:
	.loc 9 46 0
#APP
# 46 "src/mouse.c" 1
	movw %dx, %ES
# 0 "" 2
# 46 "src/mouse.c" 1
	movb %al, %ES:289
# 0 "" 2
#NO_APP
.LBE9064:
	.loc 9 48 0
	xorl	%edx, %edx
.LVL1369:
	movl	$245, %eax
.LVL1370:
	jmp	.L791
.L804:
.LBE9062:
.LBE9061:
.LBE9057:
.LBE9056:
.LBB9065:
.LBB9066:
.LBB9067:
.LBB9068:
	.loc 10 253 0
	movl	$64, %eax
#APP
# 253 "src/biosvar.h" 1
	movw %ax, %ES
# 0 "" 2
#NO_APP
.LBB9069:
#APP
# 253 "src/biosvar.h" 1
	movw %ES:14, %dx
# 0 "" 2
.LVL1371:
#NO_APP
.LBE9069:
.LBE9068:
.LBE9067:
	.loc 9 68 0
#APP
# 68 "src/mouse.c" 1
	movw %dx, %ES
# 0 "" 2
#NO_APP
.LBB9070:
#APP
# 68 "src/mouse.c" 1
	movb %ES:39, %al
# 0 "" 2
.LVL1372:
#NO_APP
.LBE9070:
	.loc 9 69 0
	testb	%al, %al
	js	.L761
.LBB9071:
.LBB9072:
.LBB9073:
.LBB9074:
	.loc 14 90 0
	movb	$5, 29(%ebx)
	jmp	.L785
.L761:
.LBE9074:
.LBE9073:
.LBE9072:
.LBE9071:
	.loc 9 74 0
#APP
# 74 "src/mouse.c" 1
	movw %dx, %ES
# 0 "" 2
#NO_APP
.LBB9075:
#APP
# 74 "src/mouse.c" 1
	movb %ES:289, %al
# 0 "" 2
.LVL1373:
#NO_APP
.LBE9075:
	.loc 9 75 0
	andl	$-33, %eax
.LVL1374:
	.loc 9 76 0
	orl	$2, %eax
.LVL1375:
.LBB9076:
	.loc 9 77 0
#APP
# 77 "src/mouse.c" 1
	movw %dx, %ES
# 0 "" 2
# 77 "src/mouse.c" 1
	movb %al, %ES:289
# 0 "" 2
#NO_APP
.LBE9076:
	.loc 9 79 0
	xorl	%edx, %edx
.LVL1376:
	movl	$244, %eax
.LVL1377:
	jmp	.L791
.L749:
.LBE9066:
.LBE9065:
.LBE9055:
.LBE9054:
.LBB9077:
.LBB9078:
	.loc 9 123 0
	cmpb	$6, %al
	ja	.L789
.LBB9079:
	.loc 9 127 0
	movzbl	%al, %eax
#APP
# 127 "src/mouse.c" 1
	movb %CS:sample_rates.18029(%eax), %al
# 0 "" 2
.LVL1378:
#NO_APP
.LBE9079:
	movb	%al, 7(%esp)
.LVL1379:
	.loc 9 128 0
	leal	7(%esp), %edx
	movl	$4339, %eax
.LVL1380:
	jmp	.L791
.LVL1381:
.L750:
.LBE9078:
.LBE9077:
.LBB9080:
.LBB9081:
	.loc 9 144 0
	movb	17(%ebx), %al
	cmpb	$3, %al
	jbe	.L766
.L789:
.LBB9082:
.LBB9083:
.LBB9084:
.LBB9085:
	.loc 14 90 0
	movb	$2, 29(%ebx)
	jmp	.L785
.L766:
.LBE9085:
.LBE9084:
.LBE9083:
.LBE9082:
	.loc 9 148 0
	movb	%al, 7(%esp)
.LVL1382:
	.loc 9 149 0
	leal	7(%esp), %edx
	movl	$4328, %eax
	jmp	.L791
.LVL1383:
.L751:
.LBE9081:
.LBE9080:
.LBB9086:
.LBB9087:
	.loc 9 161 0
	leal	4(%esp), %edx
	movl	$754, %eax
	call	mouse_command.17861
	.loc 9 162 0
	testl	%eax, %eax
.LVL1384:
	jne	.L788
	.loc 9 166 0
	movb	4(%esp), %al
.LVL1385:
	jmp	.L787
.L752:
.LBE9087:
.LBE9086:
.LBB9088:
.LBB9089:
	.loc 9 174 0
	cmpb	$3, 17(%ebx)
	je	.L769
.LBB9090:
.LBB9091:
.LBB9092:
.LBB9093:
	.loc 14 90 0
	movb	$3, 29(%ebx)
	jmp	.L785
.L769:
.LBE9093:
.LBE9092:
.LBE9091:
.LBE9090:
.LBB9094:
.LBB9095:
	.loc 10 253 0
	movl	$64, %eax
#APP
# 253 "src/biosvar.h" 1
	movw %ax, %ES
# 0 "" 2
#NO_APP
.LBB9096:
#APP
# 253 "src/biosvar.h" 1
	movw %ES:14, %ax
# 0 "" 2
.LVL1386:
#NO_APP
.LBE9096:
.LBE9095:
.LBE9094:
.LBB9097:
	.loc 9 179 0
#APP
# 179 "src/mouse.c" 1
	movw %ax, %ES
# 0 "" 2
#NO_APP
	xorl	%edx, %edx
#APP
# 179 "src/mouse.c" 1
	movb %dl, %ES:38
# 0 "" 2
#NO_APP
.LBE9097:
.LBB9098:
	.loc 9 180 0
	movb	17(%ebx), %dl
.LVL1387:
#APP
# 180 "src/mouse.c" 1
	movw %ax, %ES
# 0 "" 2
# 180 "src/mouse.c" 1
	movb %dl, %ES:39
# 0 "" 2
#NO_APP
.L797:
.LBE9098:
.LBB9099:
.LBB9100:
	.loc 9 108 0
	leal	4(%esp), %edx
.LVL1388:
	movl	$767, %eax
.LVL1389:
	call	mouse_command.17861
	.loc 9 109 0
	testl	%eax, %eax
.LVL1390:
	jne	.L788
	.loc 9 113 0
	movb	4(%esp), %al
.LVL1391:
	movb	%al, 16(%ebx)
	.loc 9 114 0
	movb	5(%esp), %al
.L787:
	movb	%al, 17(%ebx)
	jmp	.L786
.L753:
.LBE9100:
.LBE9099:
.LBE9089:
.LBE9088:
.LBB9101:
.LBB9102:
	.loc 9 234 0
	movb	17(%ebx), %al
	cmpb	$1, %al
	je	.L773
	jb	.L772
	cmpb	$2, %al
	jne	.L782
	jmp	.L805
.L772:
.LBB9103:
.LBB9104:
	.loc 9 191 0
	leal	4(%esp), %edx
	movl	$1001, %eax
	call	mouse_command.17861
	.loc 9 192 0
	testl	%eax, %eax
.LVL1392:
	jne	.L788
	.loc 9 196 0
	movb	4(%esp), %al
.LVL1393:
	movb	%al, 16(%ebx)
	.loc 9 197 0
	movb	5(%esp), %al
	movb	%al, 24(%ebx)
	.loc 9 198 0
	movb	6(%esp), %al
	movb	%al, 20(%ebx)
	jmp	.L786
.L773:
.LBE9104:
.LBE9103:
.LBB9105:
.LBB9106:
	.loc 9 206 0
	xorl	%edx, %edx
	movl	$230, %eax
	jmp	.L791
.L805:
.LBE9106:
.LBE9105:
.LBB9107:
.LBB9108:
	.loc 9 217 0
	xorl	%edx, %edx
	movl	$231, %eax
.LVL1394:
.L791:
	call	mouse_command.17861
	.loc 9 218 0
	testl	%eax, %eax
.LVL1395:
	je	.L786
.LVL1396:
.L788:
.LBB9109:
.LBB9110:
.LBB9111:
.LBB9112:
	.loc 14 90 0
	movb	$4, 29(%ebx)
	jmp	.L785
.LVL1397:
.L803:
.LBE9112:
.LBE9111:
.LBE9110:
.LBE9109:
.LBE9108:
.LBE9107:
.LBE9102:
.LBE9101:
.LBB9113:
.LBB9114:
.LBB9115:
	.loc 9 246 0
	movzwl	2(%ebx), %eax
	sall	$16, %eax
	movzwl	16(%ebx), %edi
.LBE9115:
.LBB9116:
.LBB9117:
	.loc 10 253 0
	movl	$64, %edx
#APP
# 253 "src/biosvar.h" 1
	movw %dx, %ES
# 0 "" 2
#NO_APP
.LBB9118:
#APP
# 253 "src/biosvar.h" 1
	movw %ES:14, %si
# 0 "" 2
.LVL1398:
#NO_APP
.LBE9118:
.LBE9117:
.LBE9116:
	.loc 9 248 0
#APP
# 248 "src/mouse.c" 1
	movw %si, %ES
# 0 "" 2
#NO_APP
.LBB9119:
#APP
# 248 "src/mouse.c" 1
	movb %ES:39, %cl
# 0 "" 2
.LVL1399:
#NO_APP
.LBE9119:
	.loc 9 249 0
	orl	%eax, %edi
	jne	.L778
	.loc 9 251 0
	testb	%cl, %cl
	jns	.L779
	.loc 9 252 0
	andl	$127, %ecx
.LVL1400:
.LBB9120:
.LBB9121:
	.loc 9 43 0
#APP
# 43 "src/mouse.c" 1
	movw %si, %ES
# 0 "" 2
#NO_APP
.LBB9122:
#APP
# 43 "src/mouse.c" 1
	movb %ES:289(%edi), %al
# 0 "" 2
.LVL1401:
#NO_APP
.LBE9122:
	.loc 9 44 0
	orl	$32, %eax
.LVL1402:
	.loc 9 45 0
	andl	$-3, %eax
.LVL1403:
.LBB9123:
	.loc 9 46 0
#APP
# 46 "src/mouse.c" 1
	movw %si, %ES
# 0 "" 2
# 46 "src/mouse.c" 1
	movb %al, %ES:289(%edi)
# 0 "" 2
#NO_APP
.LBE9123:
	.loc 9 48 0
	xorb	%dl, %dl
	movl	$245, %eax
.LVL1404:
	movb	%cl, (%esp)
.LVL1405:
	call	mouse_command.17861
	movb	(%esp), %cl
	jmp	.L779
.LVL1406:
.L778:
.LBE9121:
.LBE9120:
	.loc 9 257 0
	orl	$-128, %ecx
.LVL1407:
.L779:
.LBB9124:
	.loc 9 259 0
#APP
# 259 "src/mouse.c" 1
	movw %si, %ES
# 0 "" 2
# 259 "src/mouse.c" 1
	movb %cl, %ES:39
# 0 "" 2
#NO_APP
.LBE9124:
.LBB9125:
	.loc 9 260 0
#APP
# 260 "src/mouse.c" 1
	movw %si, %ES
# 0 "" 2
# 260 "src/mouse.c" 1
	movl %edi, %ES:34
# 0 "" 2
.LVL1408:
#NO_APP
.L786:
.LBE9125:
.LBB9126:
.LBB9127:
	.loc 14 77 0
	movb	$0, 29(%ebx)
.LBB9128:
.LBB9129:
	.loc 14 62 0
	andw	$-2, 36(%ebx)
.LBE9129:
.LBE9128:
.LBE9127:
.LBE9126:
.LBE9114:
.LBE9113:
	.loc 9 288 0
	jmp	.L780
.LVL1409:
.L782:
.LBB9130:
.LBB9131:
.LBB9132:
.LBB9133:
.LBB9134:
.LBB9135:
	.loc 14 90 0
	movb	$1, 29(%ebx)
.LVL1410:
.L785:
.LBB9136:
.LBB9137:
	.loc 14 60 0
	orw	$1, 36(%ebx)
.LVL1411:
.L780:
.LBE9137:
.LBE9136:
.LBE9135:
.LBE9134:
.LBE9133:
.LBE9132:
.LBE9131:
.LBE9130:
	.loc 9 291 0
	popl	%ebx
.LCFI287:
	.cfi_def_cfa_offset 20
.LVL1412:
	popl	%esi
.LCFI288:
	.cfi_def_cfa_offset 16
.LVL1413:
	popl	%ebx
	popl	%esi
	popl	%edi
	ret
	.cfi_endproc
.LFE827:
	.size	handle_15c2.1705, .-handle_15c2.1705
	.section	.text.handle_15,"ax",@progbits
.globl handle_15
	.type	handle_15, @function
handle_15:
.LFB2954:
	.file 29 "src/system.c"
	.loc 29 344 0
	.cfi_startproc
.LVL1414:
	pushl	%ebp
.LCFI289:
	.cfi_def_cfa_offset 8
	pushl	%edi
.LCFI290:
	.cfi_def_cfa_offset 12
	pushl	%esi
.LCFI291:
	.cfi_def_cfa_offset 16
	pushl	%ebx
.LCFI292:
	.cfi_def_cfa_offset 20
	subl	$32, %esp
.LCFI293:
	.cfi_def_cfa_offset 52
	movl	%eax, %edx
	.loc 29 346 0
	movb	29(%eax), %al
.LVL1415:
	cmpb	$-121, %al
	je	.L815
	.cfi_offset 3, -20
	.cfi_offset 6, -16
	.cfi_offset 7, -12
	.cfi_offset 5, -8
	ja	.L823
	cmpb	$83, %al
	je	.L811
	ja	.L824
	cmpb	$79, %al
	je	.L860
	cmpb	$82, %al
	je	.L863
	cmpb	$36, %al
	jne	.L807
	jmp	.L872
.L824:
	cmpb	$-125, %al
	je	.L813
	cmpb	$-122, %al
	jne	.L807
	jmp	.L873
.L823:
	cmpb	$-111, %al
	ja	.L825
	cmpb	$-112, %al
	jae	.L854
	cmpb	$-120, %al
	je	.L816
	cmpb	$-119, %al
	jne	.L807
	jmp	.L874
.L825:
	cmpb	$-63, %al
	je	.L820
	ja	.L826
	cmpb	$-64, %al
	jne	.L807
	jmp	.L875
.L826:
	cmpb	$-62, %al
	je	.L821
	cmpb	$-24, %al
	jne	.L807
	jmp	.L876
.L872:
.LBB9138:
.LBB9139:
	.loc 29 67 0
	movb	28(%edx), %al
	cmpb	$1, %al
	je	.L829
	jb	.L828
	cmpb	$2, %al
	je	.L830
	cmpb	$3, %al
	jne	.L807
	jmp	.L877
.L828:
.LBB9140:
.LBB9141:
.LBB9142:
.LBB9143:
.LBB9144:
	.loc 2 93 0
#APP
# 93 "src/ioport.h" 1
	inb $146, %al
# 0 "" 2
#NO_APP
	jmp	.L841
.L829:
.LBE9144:
.LBE9143:
.LBE9142:
.LBE9141:
.LBE9140:
.LBB9145:
.LBB9146:
.LBB9147:
.LBB9148:
.LBB9149:
#APP
# 93 "src/ioport.h" 1
	inb $146, %al
# 0 "" 2
.LVL1416:
#NO_APP
.L864:
.LBE9149:
.LBE9148:
.LBB9150:
.LBB9151:
	.loc 2 83 0
	orl	$2, %eax
.LVL1417:
.L862:
#APP
# 83 "src/ioport.h" 1
	outb %al, $146
# 0 "" 2
.LVL1418:
#NO_APP
.L863:
.LBE9151:
.LBE9150:
.LBE9147:
.LBE9146:
.LBB9152:
.LBB9153:
	.loc 14 77 0
	movb	$0, 29(%edx)
	jmp	.L836
.LVL1419:
.L830:
.LBE9153:
.LBE9152:
.LBE9145:
.LBB9154:
.LBB9155:
.LBB9156:
.LBB9157:
	.loc 2 93 0
#APP
# 93 "src/ioport.h" 1
	inb $146, %al
# 0 "" 2
.LVL1420:
#NO_APP
.LBE9157:
.LBE9156:
	.loc 29 47 0
	shrl	%eax
.LVL1421:
	andl	$1, %eax
	movb	%al, 28(%edx)
	jmp	.L863
.L877:
.LBE9155:
.LBE9154:
.LBB9158:
.LBB9159:
	.loc 29 54 0
	movw	$3, 16(%edx)
	jmp	.L863
.L811:
.LBE9159:
.LBE9158:
.LBE9139:
.LBE9138:
	.loc 29 350 0
	movl	%edx, %eax
	call	handle_1553.1762
.LVL1422:
	jmp	.L854
.LVL1423:
.L813:
.LBB9160:
.LBB9161:
	.loc 7 595 0
	movb	28(%edx), %al
	testb	%al, %al
	je	.L833
	decb	%al
	jne	.L857
	jmp	.L878
.L833:
.LBB9192:
.LBB9193:
	.loc 7 569 0
	movw	16(%edx), %si
	movw	2(%edx), %di
	movw	24(%edx), %ax
	movw	%ax, (%esp)
	movw	20(%edx), %cx
	movw	%cx, 20(%esp)
.LBB9195:
.LBB9196:
	.loc 7 525 0
	movl	$64, %ecx
#APP
# 525 "src/clock.c" 1
	movw %cx, %ES
# 0 "" 2
#NO_APP
.LBB9201:
#APP
# 525 "src/clock.c" 1
	movb %ES:160, %al
# 0 "" 2
.LVL1424:
#NO_APP
.LBE9201:
	andl	$1, %eax
.LVL1425:
	jne	.L807
.LBB9200:
	.loc 7 529 0
#APP
# 529 "src/clock.c" 1
	movw %cx, %ES
# 0 "" 2
#NO_APP
	movl	$1, %ebp
	movl	%ebp, %ebx
#APP
# 529 "src/clock.c" 1
	movb %bl, %ES:160(%eax)
# 0 "" 2
#NO_APP
.LBE9200:
.LBB9198:
.LBB9199:
	.loc 7 530 0
	sall	$16, %edi
	movzwl	%si, %esi
	orl	%edi, %esi
.LBE9199:
#APP
# 530 "src/clock.c" 1
	movw %cx, %ES
# 0 "" 2
# 530 "src/clock.c" 1
	movl %esi, %ES:152(%eax)
# 0 "" 2
#NO_APP
.LBE9198:
.LBB9197:
	.loc 7 531 0
#APP
# 531 "src/clock.c" 1
	movw %cx, %ES
# 0 "" 2
#NO_APP
.LBE9197:
.LBE9196:
.LBE9195:
	.loc 7 569 0
	movl	(%esp), %ebx
	sall	$16, %ebx
	movzwl	20(%esp), %esi
	orl	%esi, %ebx
.LBB9194:
.LBB9220:
.LBB9202:
	.loc 7 531 0
#APP
# 531 "src/clock.c" 1
	movl %ebx, %ES:156(%eax)
# 0 "" 2
#NO_APP
.LBE9202:
.LBB9203:
.LBB9204:
.LBB9205:
.LBB9206:
	.loc 10 253 0
#APP
# 253 "src/biosvar.h" 1
	movw %cx, %ES
# 0 "" 2
#NO_APP
.LBB9207:
#APP
# 253 "src/biosvar.h" 1
	movw %ES:14(%eax), %bx
# 0 "" 2
.LVL1426:
#NO_APP
.LBE9207:
.LBE9206:
.LBE9205:
	.loc 7 500 0
#APP
# 500 "src/clock.c" 1
	movw %bx, %ES
# 0 "" 2
#NO_APP
.LBB9208:
#APP
# 500 "src/clock.c" 1
	movl %ES:298(%eax), %ecx
# 0 "" 2
.LVL1427:
#NO_APP
.LBE9208:
.LBB9209:
	.loc 7 501 0
	leal	1(%ecx), %esi
.LVL1428:
#APP
# 501 "src/clock.c" 1
	movw %bx, %ES
# 0 "" 2
# 501 "src/clock.c" 1
	movl %esi, %ES:298(%eax)
# 0 "" 2
#NO_APP
.LBE9209:
	.loc 7 502 0
	testl	%ecx, %ecx
	jne	.L836
.LBB9210:
.LBB9211:
.LBB9212:
	.loc 2 83 0
	movb	$-117, %bl
.LVL1429:
	movb	%bl, %al
#APP
# 83 "src/ioport.h" 1
	outb %al, $112
# 0 "" 2
#NO_APP
.LBE9212:
.LBE9211:
.LBB9213:
.LBB9214:
	.loc 2 93 0
#APP
# 93 "src/ioport.h" 1
	inb $113, %al
# 0 "" 2
#NO_APP
	movb	%al, %cl
.LVL1430:
.LBE9214:
.LBE9213:
.LBE9210:
.LBB9215:
.LBB9216:
.LBB9217:
	.loc 2 83 0
	movb	%bl, %al
#APP
# 83 "src/ioport.h" 1
	outb %al, $112
# 0 "" 2
#NO_APP
.LBE9217:
.LBE9216:
.LBB9218:
.LBB9219:
	orl	$64, %ecx
	movb	%cl, %al
	jmp	.L861
.LVL1431:
.L878:
.LBE9219:
.LBE9218:
.LBE9215:
.LBE9204:
.LBE9203:
.LBE9220:
.LBE9194:
.LBE9193:
.LBE9192:
.LBB9170:
.LBB9171:
.LBB9172:
	.loc 7 539 0
	movl	$64, %eax
#APP
# 539 "src/clock.c" 1
	movw %ax, %ES
# 0 "" 2
#NO_APP
.LBB9173:
#APP
# 539 "src/clock.c" 1
	movb %ES:160, %cl
# 0 "" 2
.LVL1432:
#NO_APP
.LBE9173:
	andb	$1, %cl
	je	.L836
.LBB9174:
	.loc 7 542 0
#APP
# 542 "src/clock.c" 1
	movw %ax, %ES
# 0 "" 2
#NO_APP
	xorl	%ecx, %ecx
.LVL1433:
#APP
# 542 "src/clock.c" 1
	movb %cl, %ES:160
# 0 "" 2
#NO_APP
.LBE9174:
.LBB9175:
.LBB9176:
.LBB9177:
.LBB9178:
	.loc 10 253 0
#APP
# 253 "src/biosvar.h" 1
	movw %ax, %ES
# 0 "" 2
#NO_APP
.LBB9179:
#APP
# 253 "src/biosvar.h" 1
	movw %ES:14, %cx
# 0 "" 2
.LVL1434:
#NO_APP
.LBE9179:
.LBE9178:
.LBE9177:
	.loc 7 513 0
#APP
# 513 "src/clock.c" 1
	movw %cx, %ES
# 0 "" 2
#NO_APP
.LBB9180:
#APP
# 513 "src/clock.c" 1
	movl %ES:298, %eax
# 0 "" 2
.LVL1435:
#NO_APP
.LBE9180:
.LBB9181:
	.loc 7 514 0
	leal	-1(%eax), %ebx
.LVL1436:
#APP
# 514 "src/clock.c" 1
	movw %cx, %ES
# 0 "" 2
# 514 "src/clock.c" 1
	movl %ebx, %ES:298
# 0 "" 2
#NO_APP
.LBE9181:
	.loc 7 515 0
	decl	%eax
.LVL1437:
	jne	.L836
.LBB9182:
.LBB9183:
.LBB9184:
	.loc 2 83 0
	movb	$-117, %cl
.LVL1438:
	movb	%cl, %al
#APP
# 83 "src/ioport.h" 1
	outb %al, $112
# 0 "" 2
#NO_APP
.LBE9184:
.LBE9183:
.LBB9185:
.LBB9186:
	.loc 2 93 0
#APP
# 93 "src/ioport.h" 1
	inb $113, %al
# 0 "" 2
#NO_APP
	movb	%al, %bl
.LVL1439:
.LBE9186:
.LBE9185:
.LBE9182:
.LBB9187:
.LBB9188:
.LBB9189:
	.loc 2 83 0
	movb	%cl, %al
#APP
# 83 "src/ioport.h" 1
	outb %al, $112
# 0 "" 2
#NO_APP
.LBE9189:
.LBE9188:
.LBB9190:
.LBB9191:
	movl	%ebx, %eax
.LVL1440:
	andl	$191, %eax
.LVL1441:
.L861:
#APP
# 83 "src/ioport.h" 1
	outb %al, $113
# 0 "" 2
#NO_APP
	jmp	.L836
.LVL1442:
.L857:
.LBE9191:
.LBE9190:
.LBE9187:
.LBE9176:
.LBE9175:
.LBE9172:
.LBE9171:
.LBE9170:
.LBB9162:
.LBB9163:
.LBB9164:
.LBB9165:
.LBB9166:
.LBB9167:
	.loc 14 90 0
	movb	$-122, 29(%edx)
.LBB9168:
.LBB9169:
	.loc 14 60 0
	orw	$1, 36(%edx)
.LBE9169:
.LBE9168:
.LBE9167:
.LBE9166:
.LBE9165:
.LBE9164:
	.loc 7 589 0
	decb	28(%edx)
	jmp	.L854
.L873:
.LBE9163:
.LBE9162:
.LBE9161:
.LBE9160:
.LBB9227:
.LBB9228:
	.loc 7 553 0
	movb	$0, 31(%esp)
.LVL1443:
	.loc 7 554 0
	movw	24(%edx), %cx
	movw	%cx, 20(%esp)
	movw	20(%edx), %di
.LBB9229:
	.loc 7 555 0
#APP
# 555 "src/clock.c" 1
	movw %SS, %bp
# 0 "" 2
.LVL1444:
#NO_APP
.LBE9229:
.LBB9230:
.LBB9231:
	.loc 7 525 0
	movl	$64, %ecx
#APP
# 525 "src/clock.c" 1
	movw %cx, %ES
# 0 "" 2
#NO_APP
.LBB9236:
#APP
# 525 "src/clock.c" 1
	movb %ES:160, %al
# 0 "" 2
.LVL1445:
#NO_APP
.LBE9236:
	andl	$1, %eax
.LVL1446:
	jne	.L838
.LBB9235:
	.loc 7 529 0
#APP
# 529 "src/clock.c" 1
	movw %cx, %ES
# 0 "" 2
#NO_APP
	movl	$1, %esi
	movl	%esi, %ebx
#APP
# 529 "src/clock.c" 1
	movb %bl, %ES:160(%eax)
# 0 "" 2
#NO_APP
.LBE9235:
.LBB9233:
.LBB9234:
	.loc 7 530 0
	leal	31(%esp), %esi
	sall	$16, %ebp
.LVL1447:
	movzwl	%si, %esi
	orl	%ebp, %esi
.LBE9234:
#APP
# 530 "src/clock.c" 1
	movw %cx, %ES
# 0 "" 2
# 530 "src/clock.c" 1
	movl %esi, %ES:152(%eax)
# 0 "" 2
#NO_APP
.LBE9233:
.LBB9232:
	.loc 7 531 0
#APP
# 531 "src/clock.c" 1
	movw %cx, %ES
# 0 "" 2
#NO_APP
.LBE9232:
.LBE9231:
.LBE9230:
	.loc 7 554 0
	movl	20(%esp), %ebx
	sall	$16, %ebx
.LVL1448:
	movzwl	%di, %edi
	orl	%edi, %ebx
.LBB9256:
.LBB9255:
.LBB9237:
	.loc 7 531 0
#APP
# 531 "src/clock.c" 1
	movl %ebx, %ES:156(%eax)
# 0 "" 2
#NO_APP
.LBE9237:
.LBB9238:
.LBB9239:
.LBB9240:
.LBB9241:
	.loc 10 253 0
#APP
# 253 "src/biosvar.h" 1
	movw %cx, %ES
# 0 "" 2
#NO_APP
.LBB9242:
#APP
# 253 "src/biosvar.h" 1
	movw %ES:14(%eax), %bx
# 0 "" 2
.LVL1449:
#NO_APP
.LBE9242:
.LBE9241:
.LBE9240:
	.loc 7 500 0
#APP
# 500 "src/clock.c" 1
	movw %bx, %ES
# 0 "" 2
#NO_APP
.LBB9243:
#APP
# 500 "src/clock.c" 1
	movl %ES:298(%eax), %ecx
# 0 "" 2
.LVL1450:
#NO_APP
.LBE9243:
.LBB9244:
	.loc 7 501 0
	leal	1(%ecx), %esi
.LVL1451:
#APP
# 501 "src/clock.c" 1
	movw %bx, %ES
# 0 "" 2
# 501 "src/clock.c" 1
	movl %esi, %ES:298(%eax)
# 0 "" 2
#NO_APP
.LBE9244:
	.loc 7 502 0
	testl	%ecx, %ecx
	jne	.L855
.LBB9245:
.LBB9246:
.LBB9247:
	.loc 2 83 0
	movb	$-117, %bl
.LVL1452:
	movb	%bl, %al
#APP
# 83 "src/ioport.h" 1
	outb %al, $112
# 0 "" 2
#NO_APP
.LBE9247:
.LBE9246:
.LBB9248:
.LBB9249:
	.loc 2 93 0
#APP
# 93 "src/ioport.h" 1
	inb $113, %al
# 0 "" 2
#NO_APP
	movb	%al, %cl
.LVL1453:
.LBE9249:
.LBE9248:
.LBE9245:
.LBB9250:
.LBB9251:
.LBB9252:
	.loc 2 83 0
	movb	%bl, %al
#APP
# 83 "src/ioport.h" 1
	outb %al, $112
# 0 "" 2
#NO_APP
.LBE9252:
.LBE9251:
.LBB9253:
.LBB9254:
	orl	$64, %ecx
	movb	%cl, %al
#APP
# 83 "src/ioport.h" 1
	outb %al, $113
# 0 "" 2
#NO_APP
	jmp	.L855
.LVL1454:
.L838:
.LBE9254:
.LBE9253:
.LBE9250:
.LBE9239:
.LBE9238:
.LBE9255:
.LBE9256:
.LBB9257:
.LBB9258:
.LBB9259:
.LBB9260:
	.loc 14 90 0
	movb	$-125, 29(%edx)
	jmp	.L860
.LVL1455:
.L840:
.LBE9260:
.LBE9259:
.LBE9258:
.LBE9257:
.LBB9261:
.LBB9262:
	.loc 6 139 0
#APP
# 139 "src/stacks.c" 1
	sti ; hlt ; cli ; cld
# 0 "" 2
#NO_APP
.L855:
.LBE9262:
.LBE9261:
	.loc 7 560 0
	cmpb	$0, 31(%esp)
	je	.L840
	jmp	.L836
.LVL1456:
.L815:
.LBE9228:
.LBE9227:
.LBB9263:
.LBB9264:
.LBB9265:
.LBB9266:
.LBB9267:
.LBB9268:
	.loc 2 93 0
#APP
# 93 "src/ioport.h" 1
	inb $146, %al
# 0 "" 2
#NO_APP
	movb	%al, 19(%esp)
.LBE9268:
.LBE9267:
.LBB9269:
.LBB9270:
	.loc 2 83 0
	orl	$2, %eax
#APP
# 83 "src/ioport.h" 1
	outb %al, $146
# 0 "" 2
#NO_APP
.LBE9270:
.LBE9269:
.LBE9266:
.LBE9265:
	.loc 29 107 0
	movzwl	8(%edx), %esi
.LVL1457:
	.loc 29 109 0
	movw	2(%edx), %ax
.LVL1458:
.LBB9271:
	.loc 29 111 0
	movzwl	%ax, %ecx
	sall	$4, %ecx
#APP
# 111 "src/system.c" 1
	movw %ax, %ES
# 0 "" 2
#NO_APP
.LBB9272:
	leal	(%ecx,%esi), %edi
	xorl	%ebp, %ebp
	movl	%edi, %ecx
	movl	%ebp, %ebx
	shldl	$16, %ecx, %ebx
	sall	$16, %ecx
	movl	%ecx, 20(%esp)
	movl	%ebx, 24(%esp)
	movl	%ecx, %edi
	movl	%ebx, %ecx
	orl	$47, %edi
	orb	$147, %ch
#APP
# 111 "src/system.c" 1
	movl %edi, %ES:8(%esi)
# 0 "" 2
# 111 "src/system.c" 1
	movl %ecx, %ES:12(%esi)
# 0 "" 2
#NO_APP
.LBE9272:
.LBE9271:
.LBB9273:
	.loc 29 114 0
#APP
# 114 "src/system.c" 1
	movw %ax, %ES
# 0 "" 2
#NO_APP
.LBB9274:
	movl	$65535, %edi
.LVL1459:
	movl	$39695, %ebp
.LVL1460:
#APP
# 114 "src/system.c" 1
	movl %edi, %ES:32(%esi)
# 0 "" 2
# 114 "src/system.c" 1
	movl %ebp, %ES:36(%esi)
# 0 "" 2
#NO_APP
.LBE9274:
.LBE9273:
.LBB9275:
	.loc 29 117 0
#APP
# 117 "src/system.c" 1
	movw %SS, %cx
# 0 "" 2
.LVL1461:
#NO_APP
.LBE9275:
.LBB9276:
	.loc 29 118 0
	movzwl	%cx, %ecx
.LVL1462:
#APP
# 118 "src/system.c" 1
	movw %ax, %ES
# 0 "" 2
#NO_APP
.LBB9277:
	movl	%ecx, %edi
.LVL1463:
	sall	$4, %edi
	xorl	%ebp, %ebp
.LVL1464:
	shldl	$16, %edi, %ebp
	sall	$16, %edi
	movl	%edi, %ecx
.LVL1465:
	movl	%ebp, %eax
.LVL1466:
	orl	$65535, %ecx
	orb	$147, %ah
#APP
# 118 "src/system.c" 1
	movl %ecx, %ES:40(%esi)
# 0 "" 2
# 118 "src/system.c" 1
	movl %eax, %ES:44(%esi)
# 0 "" 2
#NO_APP
.LBE9277:
.LBE9276:
	.loc 29 121 0
	movw	24(%edx), %cx
.LVL1467:
	.loc 29 122 0
#APP
# 122 "src/system.c" 1
	  lgdtw %es:(1<<3)(%si)
  lidtw %cs:pmode_IDT_info
  movl %cr0, %eax
  orl $(1<<0), %eax
  movl %eax, %cr0
  ljmpw $(4<<3), $1f
1:movw $(2<<3), %ax
  movw %ax, %ds
  movw $(3<<3), %ax
  movw %ax, %es
  xorw %si, %si
  xorw %di, %di
  rep movsw
  movw $(5<<3), %ax
  movw %ax, %ds
  movw %ax, %es
  movl %cr0, %eax
  andl $~(1<<0), %eax
  movl %eax, %cr0
  ljmpw $0xf000, $2f
2:lidtw %cs:rmode_IDT_info
  movw %ss, %ax
  movw %ax, %ds

# 0 "" 2
#NO_APP
.LBB9278:
.LBB9279:
.LBB9280:
.LBB9281:
	.loc 2 93 0
#APP
# 93 "src/ioport.h" 1
	inb $146, %al
# 0 "" 2
.LVL1468:
#NO_APP
.LBE9281:
.LBE9280:
	.loc 29 21 0
	testb	$2, 19(%esp)
	jne	.L864
.L841:
	.loc 29 24 0
	andl	$-3, %eax
.LVL1469:
	jmp	.L862
.LVL1470:
.L816:
.LBE9279:
.LBE9278:
.LBE9264:
.LBE9263:
.LBB9282:
.LBB9283:
.LBB9284:
	.loc 29 177 0
#APP
# 177 "src/system.c" 1
	movl %CS:RamSize, %eax
# 0 "" 2
.LVL1471:
#NO_APP
.LBE9284:
	.loc 29 181 0
	cmpl	$67108864, %eax
	jbe	.L843
	.loc 29 182 0
	movw	$-1024, 28(%edx)
	jmp	.L836
.L843:
	.loc 29 184 0
	subl	$1048576, %eax
.LVL1472:
	shrl	$10, %eax
	movw	%ax, 28(%edx)
	jmp	.L836
.L874:
.LBE9283:
.LBE9282:
.LBB9285:
.LBB9286:
.LBB9287:
.LBB9288:
.LBB9289:
.LBB9290:
	.loc 2 93 0
#APP
# 93 "src/ioport.h" 1
	inb $146, %al
# 0 "" 2
#NO_APP
.LBE9290:
.LBE9289:
.LBB9291:
.LBB9292:
	.loc 2 83 0
	orl	$2, %eax
#APP
# 83 "src/ioport.h" 1
	outb %al, $146
# 0 "" 2
#NO_APP
.LBE9292:
.LBE9291:
.LBE9288:
.LBE9287:
.LBB9293:
.LBB9294:
.LBB9295:
	.loc 2 83 0
	movb	$17, %al
#APP
# 83 "src/ioport.h" 1
	outb %al, $32
# 0 "" 2
#NO_APP
.LBE9295:
.LBE9294:
.LBB9296:
.LBB9297:
#APP
# 83 "src/ioport.h" 1
	outb %al, $160
# 0 "" 2
#NO_APP
.LBE9297:
.LBE9296:
.LBB9298:
.LBB9299:
	movb	16(%edx), %al
#APP
# 83 "src/ioport.h" 1
	outb %al, $33
# 0 "" 2
#NO_APP
.LBE9299:
.LBE9298:
.LBB9300:
.LBB9301:
	movb	17(%edx), %al
#APP
# 83 "src/ioport.h" 1
	outb %al, $161
# 0 "" 2
#NO_APP
.LBE9301:
.LBE9300:
.LBB9302:
.LBB9303:
	movb	$4, %al
#APP
# 83 "src/ioport.h" 1
	outb %al, $33
# 0 "" 2
#NO_APP
.LBE9303:
.LBE9302:
.LBB9304:
.LBB9305:
	movb	$2, %al
#APP
# 83 "src/ioport.h" 1
	outb %al, $161
# 0 "" 2
#NO_APP
.LBE9305:
.LBE9304:
.LBB9306:
.LBB9307:
	movb	$1, %al
#APP
# 83 "src/ioport.h" 1
	outb %al, $33
# 0 "" 2
#NO_APP
.LBE9307:
.LBE9306:
.LBB9308:
.LBB9309:
#APP
# 83 "src/ioport.h" 1
	outb %al, $161
# 0 "" 2
#NO_APP
.LBE9309:
.LBE9308:
.LBB9310:
.LBB9311:
	movb	$-5, %al
#APP
# 83 "src/ioport.h" 1
	outb %al, $33
# 0 "" 2
#NO_APP
.LBE9311:
.LBE9310:
.LBB9312:
.LBB9313:
	movb	$-1, %al
#APP
# 83 "src/ioport.h" 1
	outb %al, $161
# 0 "" 2
#NO_APP
.LBE9313:
.LBE9312:
.LBE9293:
	.loc 29 196 0
	movzwl	8(%edx), %esi
.LVL1473:
.LBB9314:
	.loc 29 198 0
#APP
# 198 "src/system.c" 1
	movw 2(%edx), %ES
# 0 "" 2
#NO_APP
.LBB9315:
	movl	$65535, %ecx
.LVL1474:
	movl	$39695, %ebx
.LVL1475:
#APP
# 198 "src/system.c" 1
	movl %ecx, %ES:56(%esi)
# 0 "" 2
# 198 "src/system.c" 1
	movl %ebx, %ES:60(%esi)
# 0 "" 2
#NO_APP
.LBE9315:
.LBE9314:
	.loc 29 201 0
	movw	$24, (%edx)
	.loc 29 202 0
	movw	$32, 2(%edx)
	.loc 29 203 0
	movw	$48, 34(%edx)
.LBB9316:
.LBB9317:
	.loc 14 77 0
	movb	$0, 29(%edx)
.LBB9318:
.LBB9319:
	.loc 14 62 0
	andw	$-2, 36(%edx)
.LBE9319:
.LBE9318:
.LBE9317:
.LBE9316:
	.loc 29 207 0
#APP
# 207 "src/system.c" 1
	  lgdtw %es:(1<<3)(%si)
  lidtw %es:(2<<3)(%si)
  movl %cr0, %eax
  orl $(1<<0), %eax
  movl %eax, %cr0
  ljmpw $(7<<3), $1f
1:movw $(5<<3), %ax
  movw %ax, %ds
  movw %ax, %ss

# 0 "" 2
#NO_APP
.LBE9286:
.LBE9285:
	.loc 29 356 0
	jmp	.L854
.LVL1476:
.L875:
.LBB9320:
.LBB9321:
	.loc 29 251 0
	movw	$-4096, 2(%edx)
	.loc 29 252 0
	movl	$BIOS_CONFIG_TABLE, %eax
	movw	%ax, 16(%edx)
	jmp	.L863
.L820:
.LBE9321:
.LBE9320:
.LBB9322:
.LBB9323:
.LBB9324:
.LBB9325:
	.loc 10 253 0
	movl	$64, %eax
#APP
# 253 "src/biosvar.h" 1
	movw %ax, %ES
# 0 "" 2
#NO_APP
.LBB9326:
#APP
# 253 "src/biosvar.h" 1
	movw %ES:14, %ax
# 0 "" 2
.LVL1477:
#NO_APP
.LBE9326:
.LBE9325:
.LBE9324:
	.loc 29 259 0
	movw	%ax, 2(%edx)
	jmp	.L836
.LVL1478:
.L821:
.LBE9323:
.LBE9322:
	.loc 29 361 0
	movl	%edx, %eax
	call	handle_15c2.1705
.LVL1479:
	jmp	.L854
.LVL1480:
.L876:
.LBB9327:
.LBB9328:
	.loc 29 328 0
	movb	28(%edx), %al
	cmpb	$1, %al
	je	.L846
	cmpb	$32, %al
	jne	.L807
	jmp	.L879
.L846:
.LBB9329:
.LBB9330:
.LBB9331:
	.loc 29 273 0
#APP
# 273 "src/system.c" 1
	movl %CS:RamSize, %eax
# 0 "" 2
.LVL1481:
#NO_APP
.LBE9331:
	.loc 29 276 0
	cmpl	$16777216, %eax
	jbe	.L848
	.loc 29 278 0
	movw	$15360, 24(%edx)
	.loc 29 280 0
	subl	$16777216, %eax
.LVL1482:
	shrl	$16, %eax
	movw	%ax, 20(%edx)
	jmp	.L849
.LVL1483:
.L848:
	.loc 29 282 0
	subl	$1048576, %eax
.LVL1484:
	shrl	$10, %eax
	movw	%ax, 24(%edx)
	.loc 29 283 0
	movw	$0, 20(%edx)
.L849:
	.loc 29 287 0
	movw	24(%edx), %ax
	movw	%ax, 28(%edx)
	.loc 29 288 0
	movw	20(%edx), %ax
	movw	%ax, 16(%edx)
	jmp	.L836
.L879:
.LBE9330:
.LBE9329:
.LBB9332:
.LBB9333:
.LBB9334:
	.loc 29 300 0
#APP
# 300 "src/system.c" 1
	movl %CS:e820_count, %ebx
# 0 "" 2
.LVL1485:
#NO_APP
.LBE9334:
	.loc 29 301 0
	cmpl	$1397571920, 20(%edx)
	jne	.L807
	movzwl	16(%edx), %esi
	cmpl	%ebx, %esi
	jge	.L807
	cmpl	$19, 24(%edx)
	jbe	.L807
.LBB9335:
.LBB9336:
	.loc 10 300 0
#APP
# 300 "src/biosvar.h" 1
	movw %CS, %bp
# 0 "" 2
.LVL1486:
#NO_APP
.LBE9336:
.LBE9335:
	.loc 29 307 0
	movzwl	4(%edx), %edi
.LBB9337:
.LBB9338:
	.loc 16 156 0
#APP
# 156 "src/util.c" 1
	movw 2(%edx), %ES
# 0 "" 2
	.loc 16 158 0
#NO_APP
	imull	$20, %esi, %esi
	addl	$e820_list, %esi
	movl	$20, %ecx
.LVL1487:
#APP
# 158 "src/util.c" 1
	movw %ds, %ax
movw %bp, %ds
rep movsb (%si),%es:(%di)
movw %ax, %ds
# 0 "" 2
.LVL1488:
#NO_APP
.LBE9338:
.LBE9337:
	.loc 29 310 0
	movzwl	16(%edx), %eax
.LVL1489:
	decl	%ebx
.LVL1490:
	cmpl	%ebx, %eax
	jne	.L852
	.loc 29 311 0
	movl	$0, 16(%edx)
	jmp	.L853
.L852:
	.loc 29 313 0
	incl	16(%edx)
.L853:
	.loc 29 314 0
	movl	$1397571920, 28(%edx)
	.loc 29 315 0
	movl	$20, 24(%edx)
	jmp	.L836
.LVL1491:
.L807:
.LBE9333:
.LBE9332:
.LBE9328:
.LBE9327:
.LBB9339:
.LBB9340:
.LBB9341:
.LBB9342:
.LBB9343:
.LBB9344:
	.loc 14 90 0
	movb	$-122, 29(%edx)
.LVL1492:
.L860:
.LBB9345:
.LBB9346:
	.loc 14 60 0
	orw	$1, 36(%edx)
	jmp	.L854
.LVL1493:
.L836:
.LBE9346:
.LBE9345:
.LBE9344:
.LBE9343:
.LBE9342:
.LBE9341:
.LBE9340:
.LBE9339:
.LBB9347:
.LBB9226:
.LBB9225:
.LBB9224:
.LBB9221:
.LBB9222:
.LBB9223:
	.loc 14 62 0
	andw	$-2, 36(%edx)
.LVL1494:
.L854:
.LBE9223:
.LBE9222:
.LBE9221:
.LBE9224:
.LBE9225:
.LBE9226:
.LBE9347:
	.loc 29 365 0
	addl	$32, %esp
	popl	%ebx
.LVL1495:
	popl	%esi
.LVL1496:
	popl	%edi
.LVL1497:
	popl	%ebp
.LVL1498:
	ret
	.cfi_endproc
.LFE2954:
	.size	handle_15, .-handle_15
	.section	.text.handle_16,"ax",@progbits
.globl handle_16
	.type	handle_16, @function
handle_16:
.LFB915:
	.loc 11 254 0
	.cfi_startproc
.LVL1499:
	pushl	%ebp
.LCFI294:
	.cfi_def_cfa_offset 8
	pushl	%edi
.LCFI295:
	.cfi_def_cfa_offset 12
	pushl	%esi
.LCFI296:
	.cfi_def_cfa_offset 16
	pushl	%ebx
.LCFI297:
	.cfi_def_cfa_offset 20
	subl	$8, %esp
.LCFI298:
	.cfi_def_cfa_offset 28
	movl	%eax, %ebx
	.cfi_offset 3, -20
	.cfi_offset 6, -16
	.cfi_offset 7, -12
	.cfi_offset 5, -8
.LBB9348:
.LBB9349:
	.loc 11 237 0
	movl	$64, %esi
#APP
# 237 "src/kbd.c" 1
	movw %si, %ES
# 0 "" 2
#NO_APP
.LBB9350:
#APP
# 237 "src/kbd.c" 1
	movb %ES:23, %al
# 0 "" 2
.LVL1500:
#NO_APP
.LBE9350:
	shrb	$4, %al
	andl	$7, %eax
	movb	%al, 7(%esp)
.LVL1501:
	.loc 11 238 0
#APP
# 238 "src/kbd.c" 1
	movw %si, %ES
# 0 "" 2
#NO_APP
.LBB9351:
#APP
# 238 "src/kbd.c" 1
	movb %ES:151, %dl
# 0 "" 2
#NO_APP
	movl	%edx, %edi
.LVL1502:
.LBE9351:
	.loc 11 240 0
	andl	$7, %edx
	cmpb	%dl, %al
	je	.L881
.LBB9352:
.LBB9353:
.LBB9354:
.LBB9355:
	.loc 22 302 0
#APP
# 302 "src/usb-hid.c" 1
	movl %CS:keyboard_pipe, %eax
# 0 "" 2
.LVL1503:
#NO_APP
.LBE9355:
.LBE9354:
	.loc 11 116 0
	testl	%eax, %eax
	jne	.L881
.LBB9356:
.LBB9357:
.LBB9358:
	.loc 28 315 0
	leal	7(%esp), %ecx
	movl	$4333, %edx
	call	__ps2_command.31521
.LVL1504:
.LBE9358:
.LBE9357:
.LBE9356:
.LBE9353:
.LBE9352:
	.loc 11 244 0
	testl	%eax, %eax
.LVL1505:
	jne	.L881
	.loc 11 247 0
	movl	%edi, %edx
.LVL1506:
	andl	$-8, %edx
.LVL1507:
	orb	7(%esp), %dl
.LVL1508:
.LBB9359:
	.loc 11 248 0
#APP
# 248 "src/kbd.c" 1
	movw %si, %ES
# 0 "" 2
# 248 "src/kbd.c" 1
	movb %dl, %ES:151(%eax)
# 0 "" 2
.LVL1509:
#NO_APP
.L881:
.LBE9359:
.LBE9349:
.LBE9348:
	.loc 11 262 0
	movb	29(%ebx), %al
.LVL1510:
	cmpb	$10, %al
	je	.L888
	ja	.L894
	cmpb	$2, %al
	je	.L885
	ja	.L895
	testb	%al, %al
	je	.L883
	decb	%al
	jne	.L902
	jmp	.L910
.L895:
	cmpb	$5, %al
	je	.L886
	cmpb	$9, %al
	jne	.L902
	jmp	.L911
.L894:
	cmpb	$18, %al
	je	.L891
	ja	.L896
	cmpb	$16, %al
	je	.L889
	cmpb	$17, %al
	jne	.L902
	jmp	.L912
.L896:
	cmpb	$111, %al
	je	.L892
	cmpb	$-110, %al
	jne	.L902
	jmp	.L913
.L883:
.LBB9360:
.LBB9361:
	.loc 11 125 0
	xorl	%ecx, %ecx
	jmp	.L904
.L910:
.LBE9361:
.LBE9360:
.LBB9362:
.LBB9363:
	.loc 11 132 0
	xorl	%ecx, %ecx
.L905:
	xorl	%edx, %edx
.LVL1511:
.L903:
	movl	%ebx, %eax
	call	dequeue_key.19941
.LBE9363:
.LBE9362:
	.loc 11 264 0
	jmp	.L902
.LVL1512:
.L885:
.LBB9364:
.LBB9365:
.LBB9366:
.LBB9367:
.LBB9368:
.LBB9369:
	.loc 6 108 0
#APP
# 108 "src/stacks.c" 1
	sti
nop
rep ; nop
cli
cld

# 0 "" 2
#NO_APP
.LBE9369:
.LBE9368:
.LBE9367:
.LBE9366:
	.loc 11 140 0
	movl	$64, %eax
#APP
# 140 "src/kbd.c" 1
	movw %ax, %ES
# 0 "" 2
#NO_APP
.LBB9370:
#APP
# 140 "src/kbd.c" 1
	movb %ES:23, %al
# 0 "" 2
.LVL1513:
#NO_APP
.LBE9370:
	movb	%al, 28(%ebx)
.LBE9365:
.LBE9364:
	.loc 11 265 0
	jmp	.L902
.LVL1514:
.L886:
.LBB9371:
.LBB9372:
	.loc 11 147 0
	movzbl	24(%ebx), %edi
.LVL1515:
	movzbl	25(%ebx), %esi
.LBB9373:
.LBB9374:
	.loc 11 54 0
	movl	$64, %edx
.LVL1516:
#APP
# 54 "src/kbd.c" 1
	movw %dx, %ES
# 0 "" 2
#NO_APP
.LBB9375:
#APP
# 54 "src/kbd.c" 1
	movw %ES:128, %ax
# 0 "" 2
.LVL1517:
#NO_APP
.LBE9375:
	.loc 11 55 0
#APP
# 55 "src/kbd.c" 1
	movw %dx, %ES
# 0 "" 2
#NO_APP
.LBB9376:
#APP
# 55 "src/kbd.c" 1
	movw %ES:130, %bp
# 0 "" 2
.LVL1518:
#NO_APP
.LBE9376:
	.loc 11 57 0
#APP
# 57 "src/kbd.c" 1
	movw %dx, %ES
# 0 "" 2
#NO_APP
.LBB9377:
#APP
# 57 "src/kbd.c" 1
	movw %ES:26, %cx
# 0 "" 2
#NO_APP
	movw	%cx, 2(%esp)
.LBE9377:
	.loc 11 58 0
#APP
# 58 "src/kbd.c" 1
	movw %dx, %ES
# 0 "" 2
#NO_APP
.LBB9378:
#APP
# 58 "src/kbd.c" 1
	movw %ES:28, %dx
# 0 "" 2
.LVL1519:
#NO_APP
.LBE9378:
	.loc 11 61 0
	leal	2(%edx), %ecx
.LVL1520:
	.loc 11 62 0
	cmpw	%bp, %cx
	jae	.L897
	movl	%ecx, %eax
.L897:
	.loc 11 65 0
	xorl	%ecx, %ecx
.LVL1521:
	cmpw	2(%esp), %ax
	je	.L899
.LBB9379:
	.loc 11 68 0
	movl	$64, %ebp
.LVL1522:
#APP
# 68 "src/kbd.c" 1
	movw %bp, %ES
# 0 "" 2
#NO_APP
	movzwl	%dx, %edx
.LVL1523:
	movl	%edi, %ecx
#APP
# 68 "src/kbd.c" 1
	movb %cl, %ES:(%edx)
# 0 "" 2
#NO_APP
.LBE9379:
.LBB9380:
	.loc 11 69 0
#APP
# 69 "src/kbd.c" 1
	movw %bp, %ES
# 0 "" 2
#NO_APP
	movl	%esi, %ecx
#APP
# 69 "src/kbd.c" 1
	movb %cl, %ES:1(%edx)
# 0 "" 2
#NO_APP
.LBE9380:
.LBB9381:
	.loc 11 70 0
#APP
# 70 "src/kbd.c" 1
	movw %bp, %ES
# 0 "" 2
# 70 "src/kbd.c" 1
	movw %ax, %ES:28
# 0 "" 2
#NO_APP
	movb	$1, %cl
.LVL1524:
.L899:
.LBE9381:
.LBE9374:
.LBE9373:
	.loc 11 147 0
	xorl	$1, %ecx
	movb	%cl, 28(%ebx)
.LBE9372:
.LBE9371:
	.loc 11 266 0
	jmp	.L902
.LVL1525:
.L911:
.LBB9382:
.LBB9383:
	.loc 11 164 0
	movb	$48, 28(%ebx)
.LBE9383:
.LBE9382:
	.loc 11 267 0
	jmp	.L902
.L888:
.LBB9384:
.LBB9385:
.LBB9386:
.LBB9387:
.LBB9388:
.LBB9389:
	.loc 22 302 0
#APP
# 302 "src/usb-hid.c" 1
	movl %CS:keyboard_pipe, %eax
# 0 "" 2
.LVL1526:
#NO_APP
.LBE9389:
.LBE9388:
	.loc 11 116 0
	testl	%eax, %eax
	je	.L900
.LBB9390:
.LBB9391:
	.loc 22 315 0
	movb	$-85, 5(%esp)
	.loc 22 316 0
	movb	$-125, 6(%esp)
	jmp	.L901
.L900:
.LBE9391:
.LBE9390:
.LBB9392:
.LBB9393:
.LBB9394:
	.loc 28 315 0
	leal	5(%esp), %ecx
	movl	$754, %edx
.LVL1527:
	xorl	%eax, %eax
.LVL1528:
	call	__ps2_command.31521
.LBE9394:
.LBE9393:
.LBE9392:
.LBE9387:
.LBE9386:
	.loc 11 173 0
	testl	%eax, %eax
.LVL1529:
	je	.L901
	.loc 11 174 0
	movw	$0, 16(%ebx)
	jmp	.L902
.LVL1530:
.L901:
	.loc 11 177 0
	movzbl	6(%esp), %edx
.LVL1531:
	sall	$8, %edx
	movzbl	5(%esp), %eax
.LVL1532:
	orl	%edx, %eax
	movw	%ax, 16(%ebx)
	jmp	.L902
.LVL1533:
.L889:
.LBE9385:
.LBE9384:
.LBB9395:
.LBB9396:
	.loc 11 184 0
	movl	$1, %ecx
.L904:
	movl	$1, %edx
.LVL1534:
	jmp	.L903
.LVL1535:
.L912:
.LBE9396:
.LBE9395:
.LBB9397:
.LBB9398:
	.loc 11 191 0
	movl	$1, %ecx
	jmp	.L905
.L891:
.LBE9398:
.LBE9397:
.LBB9399:
.LBB9400:
.LBB9401:
.LBB9402:
.LBB9403:
.LBB9404:
	.loc 6 108 0
#APP
# 108 "src/stacks.c" 1
	sti
nop
rep ; nop
cli
cld

# 0 "" 2
#NO_APP
.LBE9404:
.LBE9403:
.LBE9402:
.LBE9401:
	.loc 11 199 0
	movl	$64, %eax
#APP
# 199 "src/kbd.c" 1
	movw %ax, %ES
# 0 "" 2
#NO_APP
.LBB9405:
#APP
# 199 "src/kbd.c" 1
	movb %ES:23, %dl
# 0 "" 2
.LVL1536:
#NO_APP
.LBE9405:
	movb	%dl, 28(%ebx)
	.loc 11 200 0
#APP
# 200 "src/kbd.c" 1
	movw %ax, %ES
# 0 "" 2
#NO_APP
.LBB9406:
#APP
# 200 "src/kbd.c" 1
	movb %ES:24, %dl
# 0 "" 2
.LVL1537:
#NO_APP
.LBE9406:
	.loc 11 201 0
#APP
# 201 "src/kbd.c" 1
	movw %ax, %ES
# 0 "" 2
#NO_APP
.LBB9407:
#APP
# 201 "src/kbd.c" 1
	movb %ES:150, %al
# 0 "" 2
#NO_APP
.LBE9407:
	.loc 11 200 0
	andl	$12, %eax
	andl	$-13, %edx
	orl	%edx, %eax
	movb	%al, 29(%ebx)
.LBE9400:
.LBE9399:
	.loc 11 271 0
	jmp	.L902
.LVL1538:
.L913:
.LBB9408:
.LBB9409:
	.loc 11 218 0
	movb	$-128, 29(%ebx)
.LBE9409:
.LBE9408:
	.loc 11 272 0
	jmp	.L902
.L892:
.LBB9410:
.LBB9411:
	.loc 11 208 0
	cmpb	$8, 28(%ebx)
	jne	.L902
	.loc 11 210 0
	movb	$2, 29(%ebx)
.LVL1539:
.L902:
.LBE9411:
.LBE9410:
	.loc 11 277 0
	popl	%edi
.LCFI299:
	.cfi_def_cfa_offset 24
.LVL1540:
	popl	%ebp
.LCFI300:
	.cfi_def_cfa_offset 20
.LVL1541:
	popl	%ebx
.LVL1542:
	popl	%esi
	popl	%edi
	popl	%ebp
	ret
	.cfi_endproc
.LFE915:
	.size	handle_16, .-handle_16
	.section	.rodata.str1.1
.LC13:
	.string	"ps2 mouse irq but no mouse data.\n"
	.section	.text.handle_74,"ax",@progbits
.globl handle_74
	.type	handle_74, @function
handle_74:
.LFB1433:
	.loc 28 341 0
	.cfi_startproc
.LBB9412:
.LBB9413:
	.loc 2 93 0
#APP
# 93 "src/ioport.h" 1
	inb $100, %al
# 0 "" 2
.LVL1543:
#NO_APP
.LBE9413:
.LBE9412:
	.loc 28 348 0
	andl	$33, %eax
.LVL1544:
	cmpl	$33, %eax
	je	.L915
	.loc 28 350 0
	pushl	$.LC13
.LCFI301:
	.cfi_def_cfa_offset 8
	.cfi_escape 0x2e,0x4
	call	__dprintf.1656
	popl	%eax
.LCFI302:
	.cfi_def_cfa_offset 4
	.loc 28 351 0
	jmp	.L916
.L915:
.LBB9414:
.LBB9415:
	.loc 2 93 0
#APP
# 93 "src/ioport.h" 1
	inb $96, %al
# 0 "" 2
.LVL1545:
#NO_APP
.LBE9415:
.LBE9414:
.LBB9416:
.LBB9417:
	.loc 10 253 0
	movl	$64, %edx
#APP
# 253 "src/biosvar.h" 1
	movw %dx, %ES
# 0 "" 2
#NO_APP
.LBB9418:
#APP
# 253 "src/biosvar.h" 1
	movw %ES:14, %dx
# 0 "" 2
.LVL1546:
#NO_APP
.LBE9418:
.LBE9417:
.LBE9416:
	.loc 28 355 0
#APP
# 355 "src/ps2port.c" 1
	movw %dx, %ES
# 0 "" 2
#NO_APP
.LBB9419:
#APP
# 355 "src/ps2port.c" 1
	movb %ES:289, %dl
# 0 "" 2
.LVL1547:
#NO_APP
.LBE9419:
	andb	$2, %dl
	je	.L916
	.loc 28 359 0
	movzbl	%al, %eax
.LVL1548:
	.cfi_escape 0x2e,0x0
	call	process_mouse.1711
.LVL1549:
.L916:
.LBB9420:
.LBB9421:
.LBB9422:
	.loc 2 83 0
	movb	$32, %al
.LVL1550:
#APP
# 83 "src/ioport.h" 1
	outb %al, $160
# 0 "" 2
#NO_APP
.LBE9422:
.LBE9421:
.LBB9423:
.LBB9424:
.LBB9425:
#APP
# 83 "src/ioport.h" 1
	outb %al, $32
# 0 "" 2
#NO_APP
.LBE9425:
.LBE9424:
.LBE9423:
.LBE9420:
	.loc 28 363 0
	ret
	.cfi_endproc
.LFE1433:
	.size	handle_74, .-handle_74
	.section	.rodata.str1.1
.LC14:
	.string	"ps2 keyboard irq but found mouse data?!\n"
	.section	.text.handle_09,"ax",@progbits
.globl handle_09
	.type	handle_09, @function
handle_09:
.LFB1434:
	.loc 28 368 0
	.cfi_startproc
.LBB9426:
.LBB9427:
	.loc 2 93 0
#APP
# 93 "src/ioport.h" 1
	inb $100, %al
# 0 "" 2
.LVL1551:
#NO_APP
.LBE9427:
.LBE9426:
	.loc 28 376 0
	movl	%eax, %edx
.LVL1552:
	andl	$32, %edx
	je	.L919
	.loc 28 377 0
	pushl	$.LC14
.LCFI303:
	.cfi_def_cfa_offset 8
	.cfi_escape 0x2e,0x4
	call	__dprintf.1656
	popl	%edx
.LCFI304:
	.cfi_def_cfa_offset 4
	.loc 28 378 0
	jmp	.L920
.L919:
.LBB9428:
.LBB9429:
	.loc 2 93 0
#APP
# 93 "src/ioport.h" 1
	inb $96, %al
# 0 "" 2
.LVL1553:
#NO_APP
.LBE9429:
.LBE9428:
.LBB9430:
.LBB9431:
	.loc 10 253 0
	movl	$64, %ecx
#APP
# 253 "src/biosvar.h" 1
	movw %cx, %ES
# 0 "" 2
#NO_APP
.LBB9432:
#APP
# 253 "src/biosvar.h" 1
	movw %ES:14(%edx), %cx
# 0 "" 2
.LVL1554:
#NO_APP
.LBE9432:
.LBE9431:
.LBE9430:
	.loc 28 382 0
#APP
# 382 "src/ps2port.c" 1
	movw %cx, %ES
# 0 "" 2
#NO_APP
.LBB9433:
#APP
# 382 "src/ps2port.c" 1
	movb %ES:289(%edx), %dl
# 0 "" 2
.LVL1555:
#NO_APP
.LBE9433:
	andb	$1, %dl
	je	.L920
	.loc 28 386 0
	movzbl	%al, %eax
.LVL1556:
	.cfi_escape 0x2e,0x0
	call	process_key.1707
.LVL1557:
.L920:
.LBB9434:
.LBB9435:
.LBB9436:
	.loc 2 83 0
	movb	$32, %al
.LVL1558:
#APP
# 83 "src/ioport.h" 1
	outb %al, $32
# 0 "" 2
#NO_APP
.LBE9436:
.LBE9435:
.LBE9434:
	.loc 28 390 0
	ret
	.cfi_endproc
.LFE1434:
	.size	handle_09, .-handle_09
	.section	.rodata.str1.1
.LC15:
	.string	"In resume (status=%d)\n"
.LC16:
	.string	"Unimplemented shutdown status: %02x\n"
	.section	.text.handle_resume,"ax",@progbits
.globl handle_resume
	.type	handle_resume, @function
handle_resume:
.LFB1575:
	.file 30 "src/resume.c"
	.loc 30 30 0
	.cfi_startproc
.LVL1559:
	pushl	%esi
.LCFI305:
	.cfi_def_cfa_offset 8
	pushl	%ebx
.LCFI306:
	.cfi_def_cfa_offset 12
	movb	%al, %bl
	.cfi_offset 3, -12
	.cfi_offset 6, -8
.LBB9437:
.LBB9438:
.LBB9439:
	.loc 2 83 0
	xorl	%edx, %edx
	movb	%dl, %al
.LVL1560:
#APP
# 83 "src/ioport.h" 1
	outb %al, $13
# 0 "" 2
#NO_APP
.LBE9439:
.LBE9438:
.LBB9440:
.LBB9441:
#APP
# 83 "src/ioport.h" 1
	outb %al, $218
# 0 "" 2
#NO_APP
.LBE9441:
.LBE9440:
.LBB9442:
.LBB9443:
	movb	$-64, %al
#APP
# 83 "src/ioport.h" 1
	outb %al, $214
# 0 "" 2
#NO_APP
.LBE9443:
.LBE9442:
.LBB9444:
.LBB9445:
	movb	%dl, %al
#APP
# 83 "src/ioport.h" 1
	outb %al, $212
# 0 "" 2
#NO_APP
.LBE9445:
.LBE9444:
.LBE9437:
	.loc 30 34 0
	movzbl	%bl, %esi
	pushl	%esi
.LCFI307:
	.cfi_def_cfa_offset 16
	pushl	$.LC15
.LCFI308:
	.cfi_def_cfa_offset 20
	.cfi_escape 0x2e,0x8
	call	__dprintf.1656
	popl	%ecx
.LCFI309:
	.cfi_def_cfa_offset 16
	popl	%eax
.LCFI310:
	.cfi_def_cfa_offset 12
	.loc 30 36 0
	cmpb	$12, %bl
	je	.L928
	ja	.L930
	cmpb	$5, %bl
	je	.L925
	ja	.L931
	testb	%bl, %bl
	je	.L924
	jmp	.L923
.L931:
	cmpb	$10, %bl
	je	.L926
	cmpb	$11, %bl
	jne	.L923
	jmp	.L934
.L930:
	cmpb	$-2, %bl
	jne	.L924
	.loc 30 40 0
	xorl	%eax, %eax
#APP
# 40 "src/resume.c" 1
	movw %ax, %ss
movl $4096, %esp
pushl $s3_resume
jmp transition32

# 0 "" 2
	.loc 30 47 0
#NO_APP
	jmp	.L923
.L924:
	.loc 30 55 0
	.cfi_escape 0x2e,0x0
	call	reset_vector
.L925:
.LBB9446:
.LBB9447:
.LBB9448:
	.loc 2 83 0
	movb	$32, %al
#APP
# 83 "src/ioport.h" 1
	outb %al, $160
# 0 "" 2
#NO_APP
.LBE9448:
.LBE9447:
.LBB9449:
.LBB9450:
.LBB9451:
#APP
# 83 "src/ioport.h" 1
	outb %al, $32
# 0 "" 2
#NO_APP
.L926:
.LBE9451:
.LBE9450:
.LBE9449:
.LBE9446:
	.loc 30 65 0
	movl	$64, %eax
#APP
# 65 "src/resume.c" 1
	movw %ax, %ds
ljmpw *103

# 0 "" 2
	.loc 30 70 0
#NO_APP
	jmp	.L923
.L934:
	.loc 30 74 0
	movl	$64, %eax
#APP
# 74 "src/resume.c" 1
	movw %ax, %ds
lssw 103, %sp
iretw

# 0 "" 2
	.loc 30 80 0
#NO_APP
	jmp	.L923
.L928:
	.loc 30 84 0
	movl	$64, %eax
#APP
# 84 "src/resume.c" 1
	movw %ax, %ds
lssw 103, %sp
lretw

# 0 "" 2
#NO_APP
.L923:
	.loc 30 93 0
	pushl	%esi
.LCFI311:
	.cfi_def_cfa_offset 16
	pushl	$.LC16
.LCFI312:
	.cfi_def_cfa_offset 20
	.cfi_escape 0x2e,0x8
	call	panic.1648
.LCFI313:
	.cfi_def_cfa_offset 12
	.cfi_endproc
.LFE1575:
	.size	handle_resume, .-handle_resume
	.section	.rodata.str1.1
.LC17:
	.string	"pnp call arg1=%x\n"
	.section	.text.handle_pnp,"ax",@progbits
.globl handle_pnp
	.type	handle_pnp, @function
handle_pnp:
.LFB1638:
	.file 31 "src/pnpbios.c"
	.loc 31 67 0
	.cfi_startproc
.LVL1561:
	pushl	%esi
.LCFI314:
	.cfi_def_cfa_offset 8
	pushl	%ebx
.LCFI315:
	.cfi_def_cfa_offset 12
	movl	%eax, %ebx
	.cfi_offset 3, -12
	.cfi_offset 6, -8
	.loc 31 71 0
	movw	(%eax), %si
.LVL1562:
	.loc 31 72 0
	movzwl	%si, %eax
.LVL1563:
	pushl	%eax
.LCFI316:
	.cfi_def_cfa_offset 16
	pushl	$.LC17
.LCFI317:
	.cfi_def_cfa_offset 20
	.cfi_escape 0x2e,0x8
	call	__dprintf.1656
.LVL1564:
	popl	%edx
.LCFI318:
	.cfi_def_cfa_offset 16
	popl	%ecx
.LCFI319:
	.cfi_def_cfa_offset 12
	.loc 31 74 0
	movl	$130, %eax
	cmpw	$96, %si
.LVL1565:
	jne	.L938
.LBB9452:
.LBB9453:
	.loc 31 53 0
	movzwl	2(%ebx), %eax
.LVL1566:
.LBB9454:
	.loc 31 55 0
#APP
# 55 "src/pnpbios.c" 1
	movw 4(%ebx), %ES
# 0 "" 2
#NO_APP
	movl	$257, %edx
#APP
# 55 "src/pnpbios.c" 1
	movw %dx, %ES:(%eax)
# 0 "" 2
#NO_APP
	xorl	%eax, %eax
.LVL1567:
.L938:
.LBE9454:
.LBE9453:
.LBE9452:
	.loc 31 78 0
	popl	%ebx
.LVL1568:
	popl	%esi
.LVL1569:
	ret
	.cfi_endproc
.LFE1638:
	.size	handle_pnp, .-handle_pnp
	.section	.rodata.str1.1
.LC18:
	.string	"wait_td error - status=%x\n"
	.section	.text.wait_td.45040,"ax",@progbits
	.type	wait_td.45040, @function
wait_td.45040:
.LFB2215:
	.loc 19 413 0
	.cfi_startproc
.LVL1570:
	pushl	%esi
.LCFI320:
	.cfi_def_cfa_offset 8
	pushl	%ebx
.LCFI321:
	.cfi_def_cfa_offset 12
	subl	$16, %esp
.LCFI322:
	.cfi_def_cfa_offset 28
	movl	%eax, %ecx
.LBB9455:
.LBB9456:
.LBB9457:
	.loc 7 134 0
#APP
# 134 "src/clock.c" 1
	movl %CS:cpu_khz, %esi
# 0 "" 2
.LVL1571:
#NO_APP
.LBE9457:
.LBB9458:
.LBB9459:
	.loc 8 79 0
#APP
# 79 "src/util.h" 1
	rdtsc
# 0 "" 2
.LVL1572:
#NO_APP
	movl	%eax, (%esp)
	movl	%edx, 4(%esp)
.LBE9459:
.LBE9458:
	.loc 7 135 0
	movl	$5000, %ebx
	.cfi_offset 3, -12
	.cfi_offset 6, -8
	movl	%esi, %eax
	mull	%ebx
	movl	%eax, %ebx
.LVL1573:
	movl	%edx, %esi
.LVL1574:
	addl	(%esp), %ebx
.LVL1575:
	adcl	4(%esp), %esi
.LVL1576:
.L945:
.LBE9456:
.LBE9455:
	.loc 19 417 0
	movl	4(%ecx), %edx
.LVL1577:
	.loc 19 418 0
	testl	$8388608, %edx
	je	.L941
.LBB9460:
.LBB9461:
.LBB9462:
	.loc 8 79 0
#APP
# 79 "src/util.h" 1
	rdtsc
# 0 "" 2
#NO_APP
	movl	%eax, (%esp)
	movl	%edx, 4(%esp)
.LVL1578:
.LBE9462:
.LBE9461:
.LBE9460:
	.loc 19 420 0
	subl	%ebx, (%esp)
	sbbl	%esi, 4(%esp)
	cmpl	$0, 4(%esp)
	jl	.L942
	jg	.L948
	cmpl	$0, (%esp)
	jbe	.L942
.L948:
.LBB9463:
.LBB9464:
	.loc 3 516 0
	pushl	$421
.LCFI323:
	.cfi_def_cfa_offset 32
	pushl	$__func__.45045
.LCFI324:
	.cfi_def_cfa_offset 36
	pushl	$.LC10
.LCFI325:
	.cfi_def_cfa_offset 40
	.cfi_escape 0x2e,0xc
	call	__dprintf.1656
.LVL1579:
	addl	$12, %esp
.LCFI326:
	.cfi_def_cfa_offset 28
	orl	$-1, %eax
.LBE9464:
.LBE9463:
	.loc 19 422 0
	jmp	.L944
.LVL1580:
.L942:
.LBB9465:
.LBB9466:
.LBB9467:
.LBB9468:
	.loc 6 108 0
#APP
# 108 "src/stacks.c" 1
	sti
nop
rep ; nop
cli
cld

# 0 "" 2
#NO_APP
.LBE9468:
.LBE9467:
.LBE9466:
.LBE9465:
	.loc 19 425 0
	jmp	.L945
.LVL1581:
.L941:
	.loc 19 426 0
	xorl	%eax, %eax
	testl	$7733248, %edx
	je	.L944
	.loc 19 427 0
	pushl	%edx
.LCFI327:
	.cfi_def_cfa_offset 32
	pushl	$.LC18
.LCFI328:
	.cfi_def_cfa_offset 36
	.cfi_escape 0x2e,0x8
	call	__dprintf.1656
.LVL1582:
	popl	%ebx
.LCFI329:
	.cfi_def_cfa_offset 32
.LVL1583:
	popl	%esi
.LCFI330:
	.cfi_def_cfa_offset 28
.LVL1584:
	movl	$-2, %eax
.LVL1585:
.L944:
	.loc 19 431 0
	addl	$16, %esp
	popl	%ebx
.LVL1586:
	popl	%esi
.LVL1587:
	ret
	.cfi_endproc
.LFE2215:
	.size	wait_td.45040, .-wait_td.45040
	.section	.rodata.str1.1
.LC19:
	.string	"uhci_send_bulk failed\n"
	.section	.text.uhci_send_bulk.42390,"ax",@progbits
	.type	uhci_send_bulk.42390, @function
uhci_send_bulk.42390:
.LFB2216:
	.loc 19 438 0
	.cfi_startproc
.LVL1588:
	pushl	%ebp
.LCFI331:
	.cfi_def_cfa_offset 8
	pushl	%edi
.LCFI332:
	.cfi_def_cfa_offset 12
	pushl	%esi
.LCFI333:
	.cfi_def_cfa_offset 16
	pushl	%ebx
.LCFI334:
	.cfi_def_cfa_offset 20
	subl	$132, %esp
.LCFI335:
	.cfi_def_cfa_offset 152
	movl	%edx, 48(%esp)
	movl	%ecx, 8(%esp)
.LBB9469:
	.loc 19 441 0
	leal	-12(%eax), %edx
.LVL1589:
	movl	%edx, 20(%esp)
.LBE9469:
.LBB9470:
	.loc 19 444 0
	leal	8(%eax), %edx
	movl	%edx, %ecx
.LVL1590:
	shrl	$4, %ecx
#APP
# 444 "src/usb-uhci.c" 1
	movw %cx, %ES
# 0 "" 2
#NO_APP
.LBB9471:
	andl	$15, %edx
#APP
# 444 "src/usb-uhci.c" 1
	movw %ES:(%edx), %dx
# 0 "" 2
.LVL1591:
#NO_APP
.LBE9471:
.LBE9470:
	movzwl	%dx, %edx
.LVL1592:
	movl	%edx, 16(%esp)
.LBB9472:
	.loc 19 445 0
	leal	7(%eax), %edx
	movl	%edx, %ecx
	shrl	$4, %ecx
#APP
# 445 "src/usb-uhci.c" 1
	movw %cx, %ES
# 0 "" 2
#NO_APP
.LBB9473:
	andl	$15, %edx
#APP
# 445 "src/usb-uhci.c" 1
	movb %ES:(%edx), %cl
# 0 "" 2
#NO_APP
	movb	%cl, 43(%esp)
.LBE9473:
.LBE9472:
.LBB9474:
	.loc 19 446 0
	leal	6(%eax), %edx
	movl	%edx, %ecx
	shrl	$4, %ecx
#APP
# 446 "src/usb-uhci.c" 1
	movw %cx, %ES
# 0 "" 2
#NO_APP
.LBB9475:
	andl	$15, %edx
#APP
# 446 "src/usb-uhci.c" 1
	movb %ES:(%edx), %cl
# 0 "" 2
.LVL1593:
#NO_APP
.LBE9475:
.LBE9474:
.LBB9476:
	.loc 19 447 0
	leal	5(%eax), %edx
	movl	%edx, %ebx
	.cfi_offset 3, -20
	.cfi_offset 6, -16
	.cfi_offset 7, -12
	.cfi_offset 5, -8
	shrl	$4, %ebx
#APP
# 447 "src/usb-uhci.c" 1
	movw %bx, %ES
# 0 "" 2
#NO_APP
.LBB9477:
	andl	$15, %edx
#APP
# 447 "src/usb-uhci.c" 1
	movb %ES:(%edx), %dl
# 0 "" 2
.LVL1594:
#NO_APP
.LBE9477:
.LBE9476:
	movzbl	%dl, %edx
.LVL1595:
	sall	$7, %edx
	movzbl	%cl, %ecx
.LVL1596:
	orl	%ecx, %edx
.LBB9478:
	.loc 19 448 0
	addl	$14, %eax
.LVL1597:
	movl	%eax, %ebx
	shrl	$4, %ebx
	movl	%ebx, 36(%esp)
#APP
# 448 "src/usb-uhci.c" 1
	movw %bx, %ES
# 0 "" 2
#NO_APP
.LBB9479:
	andl	$15, %eax
	movl	%eax, 32(%esp)
#APP
# 448 "src/usb-uhci.c" 1
	movb %ES:(%eax), %al
# 0 "" 2
.LVL1598:
#NO_APP
.LBE9479:
.LBE9478:
	cmpb	$1, %al
	sbbl	%esi, %esi
.LVL1599:
	notl	%esi
	andl	$524288, %esi
	.loc 19 452 0
	leal	68(%esp), %edi
	andl	$-16, %edi
	movl	$64, %eax
.LVL1600:
.L952:
.LBB9480:
.LBB9481:
	.loc 16 149 0
	decl	%eax
.LVL1601:
	movb	$0, (%eax,%edi)
	.loc 16 148 0
	testl	%eax, %eax
	jne	.L952
.LBE9481:
.LBE9480:
	.loc 19 456 0
.LBB9482:
.LBB9483:
.LBB9484:
	.loc 19 457 0
#APP
# 457 "src/usb-uhci.c" 1
	movw %SS, %ax
# 0 "" 2
.LVL1602:
#NO_APP
.LBE9484:
	movl	20(%esp), %ecx
.LVL1603:
	addl	$4, %ecx
	movl	%ecx, %ebx
	shrl	$4, %ebx
	movl	%ebx, 28(%esp)
#APP
# 457 "src/usb-uhci.c" 1
	movw %bx, %ES
# 0 "" 2
#NO_APP
	andl	$15, %ecx
	movl	%ecx, 24(%esp)
	movzwl	%ax, %eax
.LVL1604:
	sall	$4, %eax
	addl	%edi, %eax
#APP
# 457 "src/usb-uhci.c" 1
	movl %eax, %ES:(%ecx)
# 0 "" 2
#NO_APP
.LBE9483:
.LBE9482:
.LBB9485:
	.loc 19 473 0
	sall	$8, %edx
	movl	%edx, 44(%esp)
	xorl	%ebx, %ebx
.LVL1605:
	movl	%edi, (%esp)
.LBE9485:
	.loc 19 460 0
	jmp	.L953
.LVL1606:
.L962:
.LBB9487:
	.loc 19 461 0
	movl	%ebx, %ebp
.LVL1607:
	andl	$3, %ebp
	sall	$4, %ebp
	addl	(%esp), %ebp
.LVL1608:
	.loc 19 462 0
	movl	%ebp, %eax
.LVL1609:
	call	wait_td.45040
.LVL1610:
	.loc 19 463 0
	testl	%eax, %eax
.LVL1611:
	jne	.L954
	.loc 19 461 0
	incl	%ebx
.LVL1612:
	movl	152(%esp), %eax
.LVL1613:
	movl	16(%esp), %edi
	cmpl	%edi, %eax
.LVL1614:
	jle	.L955
	movl	%edi, %eax
.LVL1615:
.L955:
.LBB9486:
	.loc 19 469 0
#APP
# 469 "src/usb-uhci.c" 1
	movw %SS, %dx
# 0 "" 2
.LVL1616:
#NO_APP
.LBE9486:
	.loc 19 471 0
	movl	$1, %ecx
	cmpl	152(%esp), %eax
	je	.L957
	.loc 19 469 0
	movzwl	%dx, %edx
.LVL1617:
	sall	$4, %edx
	movl	%ebx, %ecx
	andl	$3, %ecx
	sall	$4, %ecx
	addl	(%esp), %ecx
	leal	(%edx,%ecx), %ecx
.LVL1618:
.L957:
	.loc 19 471 0
	movl	%ecx, (%ebp)
	.loc 19 472 0
	cmpl	$1, 48(%esp)
	sbbl	%ecx, %ecx
	andl	$120, %ecx
	addl	$105, %ecx
	movl	44(%esp), %edx
.LVL1619:
	orl	%esi, %edx
	leal	-1(%eax), %edi
	sall	$21, %edi
	orl	%edi, %edx
	orl	%ecx, %edx
	movl	%edx, 8(%ebp)
	.loc 19 475 0
	movl	8(%esp), %edx
	movl	%edx, 12(%ebp)
	.loc 19 476 0
	.loc 19 477 0
	cmpb	$1, 43(%esp)
	sbbl	%edx, %edx
	andl	$-67108864, %edx
	addl	$478150656, %edx
	movl	%edx, 4(%ebp)
	.loc 19 479 0
	xorl	$524288, %esi
.LVL1620:
	.loc 19 481 0
	addl	%eax, 8(%esp)
	.loc 19 482 0
	subl	%eax, 152(%esp)
.LVL1621:
.L953:
.LBE9487:
	.loc 19 460 0
	cmpl	$0, 152(%esp)
	jne	.L962
	movl	(%esp), %edi
	.loc 19 437 0
	leal	4(%ebx), %ebp
.LVL1622:
.L963:
.LBB9488:
	.loc 19 486 0
	movl	%ebx, %eax
.LVL1623:
	andl	$3, %eax
	sall	$4, %eax
	leal	(%edi,%eax), %eax
.LVL1624:
	incl	%ebx
	.loc 19 487 0
	call	wait_td.45040
.LVL1625:
	.loc 19 488 0
	testl	%eax, %eax
.LVL1626:
	jne	.L954
.LBE9488:
	.loc 19 485 0
	cmpl	%ebp, %ebx
	jne	.L963
.LBB9489:
.LBB9490:
	.loc 19 492 0
#APP
# 492 "src/usb-uhci.c" 1
	movw 36(%esp), %ES
# 0 "" 2
#NO_APP
	testl	%esi, %esi
	setne	%al
.LVL1627:
	movl	32(%esp), %ecx
#APP
# 492 "src/usb-uhci.c" 1
	movb %al, %ES:(%ecx)
# 0 "" 2
#NO_APP
	xorl	%eax, %eax
.LBE9490:
.LBE9489:
	.loc 19 493 0
	jmp	.L964
.LVL1628:
.L954:
	.loc 19 495 0
	pushl	$.LC19
.LCFI336:
	.cfi_def_cfa_offset 156
	.cfi_escape 0x2e,0x4
	call	__dprintf.1656
.LVL1629:
	popl	%edi
.LCFI337:
	.cfi_def_cfa_offset 152
.LBB9491:
.LBB9492:
	.loc 19 496 0
#APP
# 496 "src/usb-uhci.c" 1
	movw 28(%esp), %ES
# 0 "" 2
#NO_APP
	movl	$1, %eax
	movl	24(%esp), %ebx
.LVL1630:
#APP
# 496 "src/usb-uhci.c" 1
	movl %eax, %ES:(%ebx)
# 0 "" 2
#NO_APP
.LBE9492:
.LBE9491:
.LBB9493:
	.loc 19 497 0
	movl	20(%esp), %eax
	addl	$24, %eax
	movl	%eax, %edx
	shrl	$4, %edx
#APP
# 497 "src/usb-uhci.c" 1
	movw %dx, %ES
# 0 "" 2
#NO_APP
.LBB9494:
	andl	$15, %eax
#APP
# 497 "src/usb-uhci.c" 1
	movw %ES:(%eax), %dx
# 0 "" 2
.LVL1631:
#NO_APP
.LBE9494:
.LBE9493:
.LBB9495:
.LBB9496:
	.loc 19 234 0
	.loc 19 235 0
	leal	6(%edx), %edi
.LBB9497:
.LBB9498:
	.loc 2 98 0
	movl	%edi, %edx
.LVL1632:
#APP
# 98 "src/ioport.h" 1
	inw %dx, %ax
# 0 "" 2
#NO_APP
	movl	%eax, %ecx
.LVL1633:
.LBE9498:
.LBE9497:
.LBB9499:
.LBB9500:
.LBB9501:
	.loc 7 134 0
#APP
# 134 "src/clock.c" 1
	movl %CS:cpu_khz, %ebx
# 0 "" 2
.LVL1634:
#NO_APP
.LBE9501:
.LBB9502:
.LBB9503:
	.loc 8 79 0
#APP
# 79 "src/util.h" 1
	rdtsc
# 0 "" 2
#NO_APP
	movl	%eax, (%esp)
	movl	%edx, 4(%esp)
.LBE9503:
.LBE9502:
	.loc 7 135 0
	movl	$5000, %esi
.LVL1635:
	movl	%ebx, %eax
	mull	%esi
	movl	%eax, %ebx
.LVL1636:
	movl	%edx, %esi
.LVL1637:
	addl	(%esp), %ebx
.LVL1638:
	adcl	4(%esp), %esi
.LVL1639:
.L968:
.LBE9500:
.LBE9499:
.LBB9504:
.LBB9505:
	.loc 2 98 0
	movl	%edi, %edx
#APP
# 98 "src/ioport.h" 1
	inw %dx, %ax
# 0 "" 2
.LVL1640:
#NO_APP
.LBE9505:
.LBE9504:
	.loc 19 238 0
	cmpw	%cx, %ax
	jne	.L965
.LBB9506:
.LBB9507:
.LBB9508:
	.loc 8 79 0
#APP
# 79 "src/util.h" 1
	rdtsc
# 0 "" 2
.LVL1641:
#NO_APP
	movl	%eax, (%esp)
	movl	%edx, 4(%esp)
.LBE9508:
.LBE9507:
.LBE9506:
	.loc 19 240 0
	subl	%ebx, (%esp)
	sbbl	%esi, 4(%esp)
	cmpl	$0, 4(%esp)
	jl	.L966
	jg	.L970
	cmpl	$0, (%esp)
	jbe	.L966
.L970:
.LBB9509:
.LBB9510:
	.loc 3 516 0
	pushl	$241
.LCFI338:
	.cfi_def_cfa_offset 156
	pushl	$__func__.44820
.LCFI339:
	.cfi_def_cfa_offset 160
	pushl	$.LC10
.LCFI340:
	.cfi_def_cfa_offset 164
	.cfi_escape 0x2e,0xc
	call	__dprintf.1656
.LVL1642:
	addl	$12, %esp
.LCFI341:
	.cfi_def_cfa_offset 152
	jmp	.L965
.LVL1643:
.L966:
.LBE9510:
.LBE9509:
.LBB9511:
.LBB9512:
.LBB9513:
.LBB9514:
	.loc 6 108 0
#APP
# 108 "src/stacks.c" 1
	sti
nop
rep ; nop
cli
cld

# 0 "" 2
#NO_APP
	jmp	.L968
.LVL1644:
.L965:
	orl	$-1, %eax
.LVL1645:
.L964:
.LBE9514:
.LBE9513:
.LBE9512:
.LBE9511:
.LBE9496:
.LBE9495:
	.loc 19 499 0
	addl	$132, %esp
	popl	%ebx
.LVL1646:
	popl	%esi
.LVL1647:
	popl	%edi
	popl	%ebp
.LVL1648:
	ret	$4
	.cfi_endproc
.LFE2216:
	.size	uhci_send_bulk.42390, .-uhci_send_bulk.42390
	.section	.rodata.str1.1
.LC20:
	.string	"ehci_wait_td error - status=%x\n"
	.section	.text.ehci_wait_td.49174,"ax",@progbits
	.type	ehci_wait_td.49174, @function
ehci_wait_td.49174:
.LFB2389:
	.loc 21 562 0
	.cfi_startproc
.LVL1649:
	pushl	%esi
.LCFI342:
	.cfi_def_cfa_offset 8
	pushl	%ebx
.LCFI343:
